ARM GAS  /tmp/ccGe9U2e.s 			page 1


   1              		.cpu cortex-m4
   2              		.eabi_attribute 27, 1
   3              		.eabi_attribute 28, 1
   4              		.eabi_attribute 20, 1
   5              		.eabi_attribute 21, 1
   6              		.eabi_attribute 23, 3
   7              		.eabi_attribute 24, 1
   8              		.eabi_attribute 25, 1
   9              		.eabi_attribute 26, 1
  10              		.eabi_attribute 30, 1
  11              		.eabi_attribute 34, 1
  12              		.eabi_attribute 18, 4
  13              		.file	"api_lib.c"
  14              		.text
  15              		.section	.text.netconn_apimsg,"ax",%progbits
  16              		.align	1
  17              		.arch armv7e-m
  18              		.syntax unified
  19              		.thumb
  20              		.thumb_func
  21              		.fpu fpv4-sp-d16
  23              	netconn_apimsg:
  24              		@ args = 0, pretend = 0, frame = 0
  25              		@ frame_needed = 0, uses_anonymous_args = 0
  26 0000 10B5     		push	{r4, lr}
  27 0002 0C46     		mov	r4, r1
  28 0004 0A68     		ldr	r2, [r1]
  29 0006 0C32     		adds	r2, r2, #12
  30 0008 FFF7FEFF 		bl	tcpip_send_msg_wait_sem
  31 000c 0346     		mov	r3, r0
  32 000e 08B1     		cbz	r0, .L4
  33              	.L2:
  34 0010 1846     		mov	r0, r3
  35 0012 10BD     		pop	{r4, pc}
  36              	.L4:
  37 0014 94F90430 		ldrsb	r3, [r4, #4]
  38 0018 FAE7     		b	.L2
  40              		.section	.text.netconn_tcp_recvd_msg,"ax",%progbits
  41              		.align	1
  42              		.syntax unified
  43              		.thumb
  44              		.thumb_func
  45              		.fpu fpv4-sp-d16
  47              	netconn_tcp_recvd_msg:
  48              		@ args = 0, pretend = 0, frame = 0
  49              		@ frame_needed = 0, uses_anonymous_args = 0
  50 0000 10B5     		push	{r4, lr}
  51 0002 58B1     		cbz	r0, .L6
  52 0004 0378     		ldrb	r3, [r0]	@ zero_extendqisi2
  53 0006 03F0F003 		and	r3, r3, #240
  54 000a 102B     		cmp	r3, #16
  55 000c 06D1     		bne	.L6
  56 000e 1060     		str	r0, [r2]
  57 0010 9160     		str	r1, [r2, #8]
  58 0012 1146     		mov	r1, r2
  59 0014 0648     		ldr	r0, .L10
  60 0016 FFF7FEFF 		bl	netconn_apimsg
ARM GAS  /tmp/ccGe9U2e.s 			page 2


  61              	.L8:
  62 001a 10BD     		pop	{r4, pc}
  63              	.L6:
  64 001c 054B     		ldr	r3, .L10+4
  65 001e 4FF42A72 		mov	r2, #680
  66 0022 0549     		ldr	r1, .L10+8
  67 0024 0548     		ldr	r0, .L10+12
  68 0026 FFF7FEFF 		bl	printf
  69 002a 6FF00F00 		mvn	r0, #15
  70 002e F4E7     		b	.L8
  71              	.L11:
  72              		.align	2
  73              	.L10:
  74 0030 00000000 		.word	lwip_netconn_do_recv
  75 0034 00000000 		.word	.LC0
  76 0038 30000000 		.word	.LC1
  77 003c 54000000 		.word	.LC2
  79              		.section	.text.netconn_close_shutdown,"ax",%progbits
  80              		.align	1
  81              		.syntax unified
  82              		.thumb
  83              		.thumb_func
  84              		.fpu fpv4-sp-d16
  86              	netconn_close_shutdown:
  87              		@ args = 0, pretend = 0, frame = 40
  88              		@ frame_needed = 0, uses_anonymous_args = 0
  89 0000 00B5     		push	{lr}
  90 0002 8BB0     		sub	sp, sp, #44
  91 0004 60B1     		cbz	r0, .L16
  92 0006 0190     		str	r0, [sp, #4]
  93 0008 8DF80C10 		strb	r1, [sp, #12]
  94 000c FFF7FEFF 		bl	sys_now
  95 0010 0490     		str	r0, [sp, #16]
  96 0012 01A9     		add	r1, sp, #4
  97 0014 0748     		ldr	r0, .L17
  98 0016 FFF7FEFF 		bl	netconn_apimsg
  99              	.L14:
 100 001a 0BB0     		add	sp, sp, #44
 101              		@ sp needed
 102 001c 5DF804FB 		ldr	pc, [sp], #4
 103              	.L16:
 104 0020 054B     		ldr	r3, .L17+4
 105 0022 40F24742 		movw	r2, #1095
 106 0026 0549     		ldr	r1, .L17+8
 107 0028 0548     		ldr	r0, .L17+12
 108 002a FFF7FEFF 		bl	printf
 109 002e 6FF00F00 		mvn	r0, #15
 110 0032 F2E7     		b	.L14
 111              	.L18:
 112              		.align	2
 113              	.L17:
 114 0034 00000000 		.word	lwip_netconn_do_close
 115 0038 00000000 		.word	.LC0
 116 003c 00000000 		.word	.LC3
 117 0040 54000000 		.word	.LC2
 119              		.section	.text.netconn_new_with_proto_and_callback,"ax",%progbits
 120              		.align	1
ARM GAS  /tmp/ccGe9U2e.s 			page 3


 121              		.global	netconn_new_with_proto_and_callback
 122              		.syntax unified
 123              		.thumb
 124              		.thumb_func
 125              		.fpu fpv4-sp-d16
 127              	netconn_new_with_proto_and_callback:
 128              		@ args = 0, pretend = 0, frame = 40
 129              		@ frame_needed = 0, uses_anonymous_args = 0
 130 0000 70B5     		push	{r4, r5, r6, lr}
 131 0002 8AB0     		sub	sp, sp, #40
 132 0004 0D46     		mov	r5, r1
 133 0006 1146     		mov	r1, r2
 134 0008 FFF7FEFF 		bl	netconn_alloc
 135 000c 0446     		mov	r4, r0
 136 000e 38B1     		cbz	r0, .L19
 137 0010 8DF80C50 		strb	r5, [sp, #12]
 138 0014 0190     		str	r0, [sp, #4]
 139 0016 01A9     		add	r1, sp, #4
 140 0018 2048     		ldr	r0, .L30
 141 001a FFF7FEFF 		bl	netconn_apimsg
 142 001e 10B9     		cbnz	r0, .L26
 143              	.L19:
 144 0020 2046     		mov	r0, r4
 145 0022 0AB0     		add	sp, sp, #40
 146              		@ sp needed
 147 0024 70BD     		pop	{r4, r5, r6, pc}
 148              	.L26:
 149 0026 6368     		ldr	r3, [r4, #4]
 150 0028 2BB1     		cbz	r3, .L21
 151 002a 1D4B     		ldr	r3, .L30+4
 152 002c A322     		movs	r2, #163
 153 002e 1D49     		ldr	r1, .L30+8
 154 0030 1D48     		ldr	r0, .L30+12
 155 0032 FFF7FEFF 		bl	printf
 156              	.L21:
 157 0036 04F11005 		add	r5, r4, #16
 158 003a 2846     		mov	r0, r5
 159 003c FFF7FEFF 		bl	sys_mbox_valid
 160 0040 B0B1     		cbz	r0, .L27
 161              	.L22:
 162 0042 04F11400 		add	r0, r4, #20
 163 0046 FFF7FEFF 		bl	sys_mbox_valid
 164 004a C0B9     		cbnz	r0, .L28
 165              	.L23:
 166 004c 04F10C06 		add	r6, r4, #12
 167 0050 3046     		mov	r0, r6
 168 0052 FFF7FEFF 		bl	sys_sem_valid
 169 0056 C8B1     		cbz	r0, .L29
 170              	.L24:
 171 0058 3046     		mov	r0, r6
 172 005a FFF7FEFF 		bl	sys_sem_free
 173 005e 2846     		mov	r0, r5
 174 0060 FFF7FEFF 		bl	sys_mbox_free
 175 0064 2146     		mov	r1, r4
 176 0066 0720     		movs	r0, #7
 177 0068 FFF7FEFF 		bl	memp_free
 178 006c 0024     		movs	r4, #0
ARM GAS  /tmp/ccGe9U2e.s 			page 4


 179 006e D7E7     		b	.L19
 180              	.L27:
 181 0070 0B4B     		ldr	r3, .L30+4
 182 0072 A422     		movs	r2, #164
 183 0074 0D49     		ldr	r1, .L30+16
 184 0076 0C48     		ldr	r0, .L30+12
 185 0078 FFF7FEFF 		bl	printf
 186 007c E1E7     		b	.L22
 187              	.L28:
 188 007e 084B     		ldr	r3, .L30+4
 189 0080 A622     		movs	r2, #166
 190 0082 0B49     		ldr	r1, .L30+20
 191 0084 0848     		ldr	r0, .L30+12
 192 0086 FFF7FEFF 		bl	printf
 193 008a DFE7     		b	.L23
 194              	.L29:
 195 008c 044B     		ldr	r3, .L30+4
 196 008e A922     		movs	r2, #169
 197 0090 0849     		ldr	r1, .L30+24
 198 0092 0548     		ldr	r0, .L30+12
 199 0094 FFF7FEFF 		bl	printf
 200 0098 DEE7     		b	.L24
 201              	.L31:
 202 009a 00BF     		.align	2
 203              	.L30:
 204 009c 00000000 		.word	lwip_netconn_do_newconn
 205 00a0 00000000 		.word	.LC0
 206 00a4 00000000 		.word	.LC4
 207 00a8 54000000 		.word	.LC2
 208 00ac 24000000 		.word	.LC5
 209 00b0 3C000000 		.word	.LC6
 210 00b4 60000000 		.word	.LC7
 212              		.section	.text.netconn_prepare_delete,"ax",%progbits
 213              		.align	1
 214              		.global	netconn_prepare_delete
 215              		.syntax unified
 216              		.thumb
 217              		.thumb_func
 218              		.fpu fpv4-sp-d16
 220              	netconn_prepare_delete:
 221              		@ args = 0, pretend = 0, frame = 40
 222              		@ frame_needed = 0, uses_anonymous_args = 0
 223 0000 60B1     		cbz	r0, .L34
 224 0002 00B5     		push	{lr}
 225 0004 8BB0     		sub	sp, sp, #44
 226 0006 0190     		str	r0, [sp, #4]
 227 0008 FFF7FEFF 		bl	sys_now
 228 000c 0490     		str	r0, [sp, #16]
 229 000e 01A9     		add	r1, sp, #4
 230 0010 0348     		ldr	r0, .L39
 231 0012 FFF7FEFF 		bl	netconn_apimsg
 232 0016 0BB0     		add	sp, sp, #44
 233              		@ sp needed
 234 0018 5DF804FB 		ldr	pc, [sp], #4
 235              	.L34:
 236 001c 0020     		movs	r0, #0
 237 001e 7047     		bx	lr
ARM GAS  /tmp/ccGe9U2e.s 			page 5


 238              	.L40:
 239              		.align	2
 240              	.L39:
 241 0020 00000000 		.word	lwip_netconn_do_delconn
 243              		.section	.text.netconn_delete,"ax",%progbits
 244              		.align	1
 245              		.global	netconn_delete
 246              		.syntax unified
 247              		.thumb
 248              		.thumb_func
 249              		.fpu fpv4-sp-d16
 251              	netconn_delete:
 252              		@ args = 0, pretend = 0, frame = 0
 253              		@ frame_needed = 0, uses_anonymous_args = 0
 254 0000 38B5     		push	{r3, r4, r5, lr}
 255 0002 50B1     		cbz	r0, .L43
 256 0004 0446     		mov	r4, r0
 257 0006 FFF7FEFF 		bl	netconn_prepare_delete
 258 000a 0546     		mov	r5, r0
 259 000c 08B1     		cbz	r0, .L45
 260              	.L42:
 261 000e 2846     		mov	r0, r5
 262 0010 38BD     		pop	{r3, r4, r5, pc}
 263              	.L45:
 264 0012 2046     		mov	r0, r4
 265 0014 FFF7FEFF 		bl	netconn_free
 266 0018 F9E7     		b	.L42
 267              	.L43:
 268 001a 0025     		movs	r5, #0
 269 001c F7E7     		b	.L42
 271              		.section	.text.netconn_getaddr,"ax",%progbits
 272              		.align	1
 273              		.global	netconn_getaddr
 274              		.syntax unified
 275              		.thumb
 276              		.thumb_func
 277              		.fpu fpv4-sp-d16
 279              	netconn_getaddr:
 280              		@ args = 0, pretend = 0, frame = 40
 281              		@ frame_needed = 0, uses_anonymous_args = 0
 282 0000 10B5     		push	{r4, lr}
 283 0002 8AB0     		sub	sp, sp, #40
 284 0004 60B1     		cbz	r0, .L52
 285 0006 A9B1     		cbz	r1, .L53
 286 0008 F2B1     		cbz	r2, .L54
 287 000a 0190     		str	r0, [sp, #4]
 288 000c 8DF81430 		strb	r3, [sp, #20]
 289 0010 0391     		str	r1, [sp, #12]
 290 0012 0492     		str	r2, [sp, #16]
 291 0014 01A9     		add	r1, sp, #4
 292 0016 1148     		ldr	r0, .L55
 293 0018 FFF7FEFF 		bl	netconn_apimsg
 294              	.L48:
 295 001c 0AB0     		add	sp, sp, #40
 296              		@ sp needed
 297 001e 10BD     		pop	{r4, pc}
 298              	.L52:
ARM GAS  /tmp/ccGe9U2e.s 			page 6


 299 0020 0F4B     		ldr	r3, .L55+4
 300 0022 4FF48972 		mov	r2, #274
 301 0026 0F49     		ldr	r1, .L55+8
 302 0028 0F48     		ldr	r0, .L55+12
 303 002a FFF7FEFF 		bl	printf
 304 002e 6FF00F00 		mvn	r0, #15
 305 0032 F3E7     		b	.L48
 306              	.L53:
 307 0034 0A4B     		ldr	r3, .L55+4
 308 0036 40F21312 		movw	r2, #275
 309 003a 0C49     		ldr	r1, .L55+16
 310 003c 0A48     		ldr	r0, .L55+12
 311 003e FFF7FEFF 		bl	printf
 312 0042 6FF00F00 		mvn	r0, #15
 313 0046 E9E7     		b	.L48
 314              	.L54:
 315 0048 054B     		ldr	r3, .L55+4
 316 004a 4FF48A72 		mov	r2, #276
 317 004e 0849     		ldr	r1, .L55+20
 318 0050 0548     		ldr	r0, .L55+12
 319 0052 FFF7FEFF 		bl	printf
 320 0056 6FF00F00 		mvn	r0, #15
 321 005a DFE7     		b	.L48
 322              	.L56:
 323              		.align	2
 324              	.L55:
 325 005c 00000000 		.word	lwip_netconn_do_getaddr
 326 0060 00000000 		.word	.LC0
 327 0064 00000000 		.word	.LC8
 328 0068 54000000 		.word	.LC2
 329 006c 20000000 		.word	.LC9
 330 0070 40000000 		.word	.LC10
 332              		.section	.text.netconn_bind,"ax",%progbits
 333              		.align	1
 334              		.global	netconn_bind
 335              		.syntax unified
 336              		.thumb
 337              		.thumb_func
 338              		.fpu fpv4-sp-d16
 340              	netconn_bind:
 341              		@ args = 0, pretend = 0, frame = 40
 342              		@ frame_needed = 0, uses_anonymous_args = 0
 343 0000 00B5     		push	{lr}
 344 0002 8BB0     		sub	sp, sp, #44
 345 0004 60B1     		cbz	r0, .L63
 346 0006 0346     		mov	r3, r0
 347 0008 A1B1     		cbz	r1, .L64
 348              	.L60:
 349 000a 0193     		str	r3, [sp, #4]
 350 000c 0391     		str	r1, [sp, #12]
 351 000e ADF81020 		strh	r2, [sp, #16]	@ movhi
 352 0012 01A9     		add	r1, sp, #4
 353 0014 0848     		ldr	r0, .L65
 354 0016 FFF7FEFF 		bl	netconn_apimsg
 355              	.L59:
 356 001a 0BB0     		add	sp, sp, #44
 357              		@ sp needed
ARM GAS  /tmp/ccGe9U2e.s 			page 7


 358 001c 5DF804FB 		ldr	pc, [sp], #4
 359              	.L63:
 360 0020 064B     		ldr	r3, .L65+4
 361 0022 4FF49C72 		mov	r2, #312
 362 0026 0649     		ldr	r1, .L65+8
 363 0028 0648     		ldr	r0, .L65+12
 364 002a FFF7FEFF 		bl	printf
 365 002e 6FF00F00 		mvn	r0, #15
 366 0032 F2E7     		b	.L59
 367              	.L64:
 368 0034 0449     		ldr	r1, .L65+16
 369 0036 E8E7     		b	.L60
 370              	.L66:
 371              		.align	2
 372              	.L65:
 373 0038 00000000 		.word	lwip_netconn_do_bind
 374 003c 00000000 		.word	.LC0
 375 0040 00000000 		.word	.LC11
 376 0044 54000000 		.word	.LC2
 377 0048 00000000 		.word	ip_addr_any
 379              		.section	.text.netconn_bind_if,"ax",%progbits
 380              		.align	1
 381              		.global	netconn_bind_if
 382              		.syntax unified
 383              		.thumb
 384              		.thumb_func
 385              		.fpu fpv4-sp-d16
 387              	netconn_bind_if:
 388              		@ args = 0, pretend = 0, frame = 40
 389              		@ frame_needed = 0, uses_anonymous_args = 0
 390 0000 00B5     		push	{lr}
 391 0002 8BB0     		sub	sp, sp, #44
 392 0004 48B1     		cbz	r0, .L71
 393 0006 0190     		str	r0, [sp, #4]
 394 0008 8DF81210 		strb	r1, [sp, #18]
 395 000c 01A9     		add	r1, sp, #4
 396 000e 0848     		ldr	r0, .L72
 397 0010 FFF7FEFF 		bl	netconn_apimsg
 398              	.L69:
 399 0014 0BB0     		add	sp, sp, #44
 400              		@ sp needed
 401 0016 5DF804FB 		ldr	pc, [sp], #4
 402              	.L71:
 403 001a 064B     		ldr	r3, .L72+4
 404 001c 4FF4B272 		mov	r2, #356
 405 0020 0549     		ldr	r1, .L72+8
 406 0022 0648     		ldr	r0, .L72+12
 407 0024 FFF7FEFF 		bl	printf
 408 0028 6FF00F00 		mvn	r0, #15
 409 002c F2E7     		b	.L69
 410              	.L73:
 411 002e 00BF     		.align	2
 412              	.L72:
 413 0030 00000000 		.word	lwip_netconn_do_bind_if
 414 0034 00000000 		.word	.LC0
 415 0038 00000000 		.word	.LC12
 416 003c 54000000 		.word	.LC2
ARM GAS  /tmp/ccGe9U2e.s 			page 8


 418              		.section	.text.netconn_connect,"ax",%progbits
 419              		.align	1
 420              		.global	netconn_connect
 421              		.syntax unified
 422              		.thumb
 423              		.thumb_func
 424              		.fpu fpv4-sp-d16
 426              	netconn_connect:
 427              		@ args = 0, pretend = 0, frame = 40
 428              		@ frame_needed = 0, uses_anonymous_args = 0
 429 0000 00B5     		push	{lr}
 430 0002 8BB0     		sub	sp, sp, #44
 431 0004 60B1     		cbz	r0, .L80
 432 0006 0346     		mov	r3, r0
 433 0008 A1B1     		cbz	r1, .L81
 434              	.L77:
 435 000a 0193     		str	r3, [sp, #4]
 436 000c 0391     		str	r1, [sp, #12]
 437 000e ADF81020 		strh	r2, [sp, #16]	@ movhi
 438 0012 01A9     		add	r1, sp, #4
 439 0014 0848     		ldr	r0, .L82
 440 0016 FFF7FEFF 		bl	netconn_apimsg
 441              	.L76:
 442 001a 0BB0     		add	sp, sp, #44
 443              		@ sp needed
 444 001c 5DF804FB 		ldr	pc, [sp], #4
 445              	.L80:
 446 0020 064B     		ldr	r3, .L82+4
 447 0022 4FF4BF72 		mov	r2, #382
 448 0026 0649     		ldr	r1, .L82+8
 449 0028 0648     		ldr	r0, .L82+12
 450 002a FFF7FEFF 		bl	printf
 451 002e 6FF00F00 		mvn	r0, #15
 452 0032 F2E7     		b	.L76
 453              	.L81:
 454 0034 0449     		ldr	r1, .L82+16
 455 0036 E8E7     		b	.L77
 456              	.L83:
 457              		.align	2
 458              	.L82:
 459 0038 00000000 		.word	lwip_netconn_do_connect
 460 003c 00000000 		.word	.LC0
 461 0040 00000000 		.word	.LC13
 462 0044 54000000 		.word	.LC2
 463 0048 00000000 		.word	ip_addr_any
 465              		.section	.text.netconn_disconnect,"ax",%progbits
 466              		.align	1
 467              		.global	netconn_disconnect
 468              		.syntax unified
 469              		.thumb
 470              		.thumb_func
 471              		.fpu fpv4-sp-d16
 473              	netconn_disconnect:
 474              		@ args = 0, pretend = 0, frame = 40
 475              		@ frame_needed = 0, uses_anonymous_args = 0
 476 0000 00B5     		push	{lr}
 477 0002 8BB0     		sub	sp, sp, #44
ARM GAS  /tmp/ccGe9U2e.s 			page 9


 478 0004 38B1     		cbz	r0, .L88
 479 0006 0190     		str	r0, [sp, #4]
 480 0008 01A9     		add	r1, sp, #4
 481 000a 0848     		ldr	r0, .L89
 482 000c FFF7FEFF 		bl	netconn_apimsg
 483              	.L86:
 484 0010 0BB0     		add	sp, sp, #44
 485              		@ sp needed
 486 0012 5DF804FB 		ldr	pc, [sp], #4
 487              	.L88:
 488 0016 064B     		ldr	r3, .L89+4
 489 0018 4FF4CF72 		mov	r2, #414
 490 001c 0549     		ldr	r1, .L89+8
 491 001e 0648     		ldr	r0, .L89+12
 492 0020 FFF7FEFF 		bl	printf
 493 0024 6FF00F00 		mvn	r0, #15
 494 0028 F2E7     		b	.L86
 495              	.L90:
 496 002a 00BF     		.align	2
 497              	.L89:
 498 002c 00000000 		.word	lwip_netconn_do_disconnect
 499 0030 00000000 		.word	.LC0
 500 0034 00000000 		.word	.LC14
 501 0038 54000000 		.word	.LC2
 503              		.section	.text.netconn_listen_with_backlog,"ax",%progbits
 504              		.align	1
 505              		.global	netconn_listen_with_backlog
 506              		.syntax unified
 507              		.thumb
 508              		.thumb_func
 509              		.fpu fpv4-sp-d16
 511              	netconn_listen_with_backlog:
 512              		@ args = 0, pretend = 0, frame = 40
 513              		@ frame_needed = 0, uses_anonymous_args = 0
 514 0000 00B5     		push	{lr}
 515 0002 8BB0     		sub	sp, sp, #44
 516 0004 38B1     		cbz	r0, .L95
 517 0006 0190     		str	r0, [sp, #4]
 518 0008 01A9     		add	r1, sp, #4
 519 000a 0848     		ldr	r0, .L96
 520 000c FFF7FEFF 		bl	netconn_apimsg
 521              	.L93:
 522 0010 0BB0     		add	sp, sp, #44
 523              		@ sp needed
 524 0012 5DF804FB 		ldr	pc, [sp], #4
 525              	.L95:
 526 0016 064B     		ldr	r3, .L96+4
 527 0018 40F2BB12 		movw	r2, #443
 528 001c 0549     		ldr	r1, .L96+8
 529 001e 0648     		ldr	r0, .L96+12
 530 0020 FFF7FEFF 		bl	printf
 531 0024 6FF00F00 		mvn	r0, #15
 532 0028 F2E7     		b	.L93
 533              	.L97:
 534 002a 00BF     		.align	2
 535              	.L96:
 536 002c 00000000 		.word	lwip_netconn_do_listen
ARM GAS  /tmp/ccGe9U2e.s 			page 10


 537 0030 00000000 		.word	.LC0
 538 0034 00000000 		.word	.LC15
 539 0038 54000000 		.word	.LC2
 541              		.section	.text.netconn_tcp_recvd,"ax",%progbits
 542              		.align	1
 543              		.global	netconn_tcp_recvd
 544              		.syntax unified
 545              		.thumb
 546              		.thumb_func
 547              		.fpu fpv4-sp-d16
 549              	netconn_tcp_recvd:
 550              		@ args = 0, pretend = 0, frame = 40
 551              		@ frame_needed = 0, uses_anonymous_args = 0
 552 0000 10B5     		push	{r4, lr}
 553 0002 8AB0     		sub	sp, sp, #40
 554 0004 48B1     		cbz	r0, .L99
 555 0006 0378     		ldrb	r3, [r0]	@ zero_extendqisi2
 556 0008 03F0F003 		and	r3, r3, #240
 557 000c 102B     		cmp	r3, #16
 558 000e 04D1     		bne	.L99
 559 0010 01AA     		add	r2, sp, #4
 560 0012 FFF7FEFF 		bl	netconn_tcp_recvd_msg
 561              	.L101:
 562 0016 0AB0     		add	sp, sp, #40
 563              		@ sp needed
 564 0018 10BD     		pop	{r4, pc}
 565              	.L99:
 566 001a 054B     		ldr	r3, .L103
 567 001c 40F2B622 		movw	r2, #694
 568 0020 0449     		ldr	r1, .L103+4
 569 0022 0548     		ldr	r0, .L103+8
 570 0024 FFF7FEFF 		bl	printf
 571 0028 6FF00F00 		mvn	r0, #15
 572 002c F3E7     		b	.L101
 573              	.L104:
 574 002e 00BF     		.align	2
 575              	.L103:
 576 0030 00000000 		.word	.LC0
 577 0034 30000000 		.word	.LC1
 578 0038 54000000 		.word	.LC2
 580              		.section	.text.netconn_send,"ax",%progbits
 581              		.align	1
 582              		.global	netconn_send
 583              		.syntax unified
 584              		.thumb
 585              		.thumb_func
 586              		.fpu fpv4-sp-d16
 588              	netconn_send:
 589              		@ args = 0, pretend = 0, frame = 40
 590              		@ frame_needed = 0, uses_anonymous_args = 0
 591 0000 00B5     		push	{lr}
 592 0002 8BB0     		sub	sp, sp, #44
 593 0004 40B1     		cbz	r0, .L109
 594 0006 0190     		str	r0, [sp, #4]
 595 0008 0391     		str	r1, [sp, #12]
 596 000a 01A9     		add	r1, sp, #4
 597 000c 0748     		ldr	r0, .L110
ARM GAS  /tmp/ccGe9U2e.s 			page 11


 598 000e FFF7FEFF 		bl	netconn_apimsg
 599              	.L107:
 600 0012 0BB0     		add	sp, sp, #44
 601              		@ sp needed
 602 0014 5DF804FB 		ldr	pc, [sp], #4
 603              	.L109:
 604 0018 054B     		ldr	r3, .L110+4
 605 001a 40F2B232 		movw	r2, #946
 606 001e 0549     		ldr	r1, .L110+8
 607 0020 0548     		ldr	r0, .L110+12
 608 0022 FFF7FEFF 		bl	printf
 609 0026 6FF00F00 		mvn	r0, #15
 610 002a F2E7     		b	.L107
 611              	.L111:
 612              		.align	2
 613              	.L110:
 614 002c 00000000 		.word	lwip_netconn_do_send
 615 0030 00000000 		.word	.LC0
 616 0034 00000000 		.word	.LC16
 617 0038 54000000 		.word	.LC2
 619              		.section	.text.netconn_sendto,"ax",%progbits
 620              		.align	1
 621              		.global	netconn_sendto
 622              		.syntax unified
 623              		.thumb
 624              		.thumb_func
 625              		.fpu fpv4-sp-d16
 627              	netconn_sendto:
 628              		@ args = 0, pretend = 0, frame = 0
 629              		@ frame_needed = 0, uses_anonymous_args = 0
 630 0000 59B1     		cbz	r1, .L115
 631 0002 10B5     		push	{r4, lr}
 632 0004 0C46     		mov	r4, r1
 633 0006 32B1     		cbz	r2, .L116
 634 0008 1268     		ldr	r2, [r2]
 635              	.L114:
 636 000a 2146     		mov	r1, r4
 637 000c A260     		str	r2, [r4, #8]
 638 000e A381     		strh	r3, [r4, #12]	@ movhi
 639 0010 FFF7FEFF 		bl	netconn_send
 640 0014 10BD     		pop	{r4, pc}
 641              	.L116:
 642 0016 0022     		movs	r2, #0
 643 0018 F7E7     		b	.L114
 644              	.L115:
 645 001a 6FF00500 		mvn	r0, #5
 646 001e 7047     		bx	lr
 648              		.section	.text.netconn_write_vectors_partly,"ax",%progbits
 649              		.align	1
 650              		.global	netconn_write_vectors_partly
 651              		.syntax unified
 652              		.thumb
 653              		.thumb_func
 654              		.fpu fpv4-sp-d16
 656              	netconn_write_vectors_partly:
 657              		@ args = 4, pretend = 0, frame = 40
 658              		@ frame_needed = 0, uses_anonymous_args = 0
ARM GAS  /tmp/ccGe9U2e.s 			page 12


 659 0000 F0B5     		push	{r4, r5, r6, r7, lr}
 660 0002 8BB0     		sub	sp, sp, #44
 661 0004 109E     		ldr	r6, [sp, #64]
 662 0006 78B1     		cbz	r0, .L142
 663 0008 8446     		mov	ip, r0
 664 000a 0078     		ldrb	r0, [r0]	@ zero_extendqisi2
 665 000c 00F0F000 		and	r0, r0, #240
 666 0010 1028     		cmp	r0, #16
 667 0012 13D1     		bne	.L143
 668 0014 9CF82400 		ldrb	r0, [ip, #36]	@ zero_extendqisi2
 669 0018 10F0020F 		tst	r0, #2
 670 001c 18D1     		bne	.L134
 671 001e 13F0040F 		tst	r3, #4
 672 0022 1CD0     		beq	.L135
 673 0024 0127     		movs	r7, #1
 674 0026 14E0     		b	.L125
 675              	.L142:
 676 0028 344B     		ldr	r3, .L148
 677 002a 40F2EE32 		movw	r2, #1006
 678 002e 3449     		ldr	r1, .L148+4
 679 0030 3448     		ldr	r0, .L148+8
 680 0032 FFF7FEFF 		bl	printf
 681 0036 6FF00F05 		mvn	r5, #15
 682 003a 56E0     		b	.L123
 683              	.L143:
 684 003c 2F4B     		ldr	r3, .L148
 685 003e 40F2EF32 		movw	r2, #1007
 686 0042 3149     		ldr	r1, .L148+12
 687 0044 2F48     		ldr	r0, .L148+8
 688 0046 FFF7FEFF 		bl	printf
 689 004a 6FF00505 		mvn	r5, #5
 690 004e 4CE0     		b	.L123
 691              	.L134:
 692 0050 0127     		movs	r7, #1
 693              	.L125:
 694 0052 FFB2     		uxtb	r7, r7
 695 0054 DCF81C00 		ldr	r0, [ip, #28]
 696 0058 18B9     		cbnz	r0, .L136
 697 005a 2FB1     		cbz	r7, .L127
 698 005c 02E0     		b	.L126
 699              	.L135:
 700 005e 0027     		movs	r7, #0
 701 0060 F7E7     		b	.L125
 702              	.L136:
 703 0062 0127     		movs	r7, #1
 704              	.L126:
 705 0064 002E     		cmp	r6, #0
 706 0066 3BD0     		beq	.L144
 707              	.L127:
 708 0068 0020     		movs	r0, #0
 709 006a 0446     		mov	r4, r0
 710              	.L128:
 711 006c 8242     		cmp	r2, r0
 712 006e 06DD     		ble	.L145
 713 0070 01EBC005 		add	r5, r1, r0, lsl #3
 714 0074 6D68     		ldr	r5, [r5, #4]
 715 0076 6419     		adds	r4, r4, r5
ARM GAS  /tmp/ccGe9U2e.s 			page 13


 716 0078 35D2     		bcs	.L138
 717 007a 0130     		adds	r0, r0, #1
 718 007c F6E7     		b	.L128
 719              	.L145:
 720 007e 002C     		cmp	r4, #0
 721 0080 36D0     		beq	.L139
 722 0082 002C     		cmp	r4, #0
 723 0084 24DB     		blt	.L146
 724              	.L130:
 725 0086 CDF804C0 		str	ip, [sp, #4]
 726 008a 0391     		str	r1, [sp, #12]
 727 008c ADF81020 		strh	r2, [sp, #16]	@ movhi
 728 0090 0022     		movs	r2, #0
 729 0092 0592     		str	r2, [sp, #20]
 730 0094 8DF82030 		strb	r3, [sp, #32]
 731 0098 0694     		str	r4, [sp, #24]
 732 009a 0792     		str	r2, [sp, #28]
 733 009c DCF81C30 		ldr	r3, [ip, #28]
 734 00a0 D3B9     		cbnz	r3, .L147
 735 00a2 0023     		movs	r3, #0
 736 00a4 0993     		str	r3, [sp, #36]
 737              	.L132:
 738 00a6 01A9     		add	r1, sp, #4
 739 00a8 1848     		ldr	r0, .L148+16
 740 00aa FFF7FEFF 		bl	netconn_apimsg
 741 00ae 0546     		mov	r5, r0
 742 00b0 D8B9     		cbnz	r0, .L123
 743 00b2 0EB1     		cbz	r6, .L133
 744 00b4 079B     		ldr	r3, [sp, #28]
 745 00b6 3360     		str	r3, [r6]
 746              	.L133:
 747 00b8 BFB9     		cbnz	r7, .L123
 748 00ba 079B     		ldr	r3, [sp, #28]
 749 00bc A342     		cmp	r3, r4
 750 00be 14D0     		beq	.L123
 751 00c0 0E4B     		ldr	r3, .L148
 752 00c2 4FF48662 		mov	r2, #1072
 753 00c6 1249     		ldr	r1, .L148+20
 754 00c8 0E48     		ldr	r0, .L148+8
 755 00ca FFF7FEFF 		bl	printf
 756 00ce 0CE0     		b	.L123
 757              	.L146:
 758 00d0 86B1     		cbz	r6, .L140
 759 00d2 6FF00044 		mvn	r4, #-2147483648
 760 00d6 D6E7     		b	.L130
 761              	.L147:
 762 00d8 FFF7FEFF 		bl	sys_now
 763 00dc 0990     		str	r0, [sp, #36]
 764 00de E2E7     		b	.L132
 765              	.L144:
 766 00e0 6FF00505 		mvn	r5, #5
 767 00e4 01E0     		b	.L123
 768              	.L138:
 769 00e6 6FF00505 		mvn	r5, #5
 770              	.L123:
 771 00ea 2846     		mov	r0, r5
 772 00ec 0BB0     		add	sp, sp, #44
ARM GAS  /tmp/ccGe9U2e.s 			page 14


 773              		@ sp needed
 774 00ee F0BD     		pop	{r4, r5, r6, r7, pc}
 775              	.L139:
 776 00f0 0025     		movs	r5, #0
 777 00f2 FAE7     		b	.L123
 778              	.L140:
 779 00f4 6FF00505 		mvn	r5, #5
 780 00f8 F7E7     		b	.L123
 781              	.L149:
 782 00fa 00BF     		.align	2
 783              	.L148:
 784 00fc 00000000 		.word	.LC0
 785 0100 00000000 		.word	.LC17
 786 0104 54000000 		.word	.LC2
 787 0108 1C000000 		.word	.LC18
 788 010c 00000000 		.word	lwip_netconn_do_write
 789 0110 40000000 		.word	.LC19
 791              		.section	.text.netconn_write_partly,"ax",%progbits
 792              		.align	1
 793              		.global	netconn_write_partly
 794              		.syntax unified
 795              		.thumb
 796              		.thumb_func
 797              		.fpu fpv4-sp-d16
 799              	netconn_write_partly:
 800              		@ args = 4, pretend = 0, frame = 8
 801              		@ frame_needed = 0, uses_anonymous_args = 0
 802 0000 00B5     		push	{lr}
 803 0002 85B0     		sub	sp, sp, #20
 804 0004 0291     		str	r1, [sp, #8]
 805 0006 0392     		str	r2, [sp, #12]
 806 0008 069A     		ldr	r2, [sp, #24]
 807 000a 0092     		str	r2, [sp]
 808 000c 0122     		movs	r2, #1
 809 000e 02A9     		add	r1, sp, #8
 810 0010 FFF7FEFF 		bl	netconn_write_vectors_partly
 811 0014 05B0     		add	sp, sp, #20
 812              		@ sp needed
 813 0016 5DF804FB 		ldr	pc, [sp], #4
 815              		.section	.text.netconn_close,"ax",%progbits
 816              		.align	1
 817              		.global	netconn_close
 818              		.syntax unified
 819              		.thumb
 820              		.thumb_func
 821              		.fpu fpv4-sp-d16
 823              	netconn_close:
 824              		@ args = 0, pretend = 0, frame = 0
 825              		@ frame_needed = 0, uses_anonymous_args = 0
 826 0000 08B5     		push	{r3, lr}
 827 0002 0321     		movs	r1, #3
 828 0004 FFF7FEFF 		bl	netconn_close_shutdown
 829 0008 08BD     		pop	{r3, pc}
 831              		.section	.text.netconn_err,"ax",%progbits
 832              		.align	1
 833              		.global	netconn_err
 834              		.syntax unified
ARM GAS  /tmp/ccGe9U2e.s 			page 15


 835              		.thumb
 836              		.thumb_func
 837              		.fpu fpv4-sp-d16
 839              	netconn_err:
 840              		@ args = 0, pretend = 0, frame = 0
 841              		@ frame_needed = 0, uses_anonymous_args = 0
 842 0000 38B5     		push	{r3, r4, r5, lr}
 843 0002 50B1     		cbz	r0, .L156
 844 0004 0446     		mov	r4, r0
 845 0006 FFF7FEFF 		bl	sys_arch_protect
 846 000a 94F90850 		ldrsb	r5, [r4, #8]
 847 000e 0023     		movs	r3, #0
 848 0010 2372     		strb	r3, [r4, #8]
 849 0012 FFF7FEFF 		bl	sys_arch_unprotect
 850              	.L155:
 851 0016 2846     		mov	r0, r5
 852 0018 38BD     		pop	{r3, r4, r5, pc}
 853              	.L156:
 854 001a 0025     		movs	r5, #0
 855 001c FBE7     		b	.L155
 857              		.section	.text.netconn_accept,"ax",%progbits
 858              		.align	1
 859              		.global	netconn_accept
 860              		.syntax unified
 861              		.thumb
 862              		.thumb_func
 863              		.fpu fpv4-sp-d16
 865              	netconn_accept:
 866              		@ args = 0, pretend = 0, frame = 8
 867              		@ frame_needed = 0, uses_anonymous_args = 0
 868 0000 F0B5     		push	{r4, r5, r6, r7, lr}
 869 0002 83B0     		sub	sp, sp, #12
 870 0004 69B1     		cbz	r1, .L172
 871 0006 0446     		mov	r4, r0
 872 0008 0E46     		mov	r6, r1
 873 000a 0023     		movs	r3, #0
 874 000c 0B60     		str	r3, [r1]
 875 000e 90B1     		cbz	r0, .L173
 876 0010 FFF7FEFF 		bl	netconn_err
 877 0014 0546     		mov	r5, r0
 878 0016 8DF80700 		strb	r0, [sp, #7]
 879 001a B0B1     		cbz	r0, .L174
 880              	.L160:
 881 001c 2846     		mov	r0, r5
 882 001e 03B0     		add	sp, sp, #12
 883              		@ sp needed
 884 0020 F0BD     		pop	{r4, r5, r6, r7, pc}
 885              	.L172:
 886 0022 294B     		ldr	r3, .L177
 887 0024 40F2E112 		movw	r2, #481
 888 0028 2849     		ldr	r1, .L177+4
 889 002a 2948     		ldr	r0, .L177+8
 890 002c FFF7FEFF 		bl	printf
 891 0030 6FF00F05 		mvn	r5, #15
 892 0034 F2E7     		b	.L160
 893              	.L173:
 894 0036 244B     		ldr	r3, .L177
ARM GAS  /tmp/ccGe9U2e.s 			page 16


 895 0038 40F2E312 		movw	r2, #483
 896 003c 2549     		ldr	r1, .L177+12
 897 003e 2448     		ldr	r0, .L177+8
 898 0040 FFF7FEFF 		bl	printf
 899 0044 6FF00F05 		mvn	r5, #15
 900 0048 E8E7     		b	.L160
 901              	.L174:
 902 004a 04F11407 		add	r7, r4, #20
 903 004e 3846     		mov	r0, r7
 904 0050 FFF7FEFF 		bl	sys_mbox_valid
 905 0054 60B3     		cbz	r0, .L166
 906 0056 94F82430 		ldrb	r3, [r4, #36]	@ zero_extendqisi2
 907 005a 13F0010F 		tst	r3, #1
 908 005e 2AD1     		bne	.L167
 909 0060 13F0020F 		tst	r3, #2
 910 0064 16D0     		beq	.L162
 911 0066 6946     		mov	r1, sp
 912 0068 3846     		mov	r0, r7
 913 006a FFF7FEFF 		bl	sys_arch_mbox_tryfetch
 914 006e B0F1FF3F 		cmp	r0, #-1
 915 0072 23D0     		beq	.L175
 916              	.L163:
 917 0074 E36A     		ldr	r3, [r4, #44]
 918 0076 1BB1     		cbz	r3, .L164
 919 0078 0022     		movs	r2, #0
 920 007a 0121     		movs	r1, #1
 921 007c 2046     		mov	r0, r4
 922 007e 9847     		blx	r3
 923              	.L164:
 924 0080 0DF10701 		add	r1, sp, #7
 925 0084 0098     		ldr	r0, [sp]
 926 0086 FFF7FEFF 		bl	lwip_netconn_is_err_msg
 927 008a 70B9     		cbnz	r0, .L176
 928 008c 009B     		ldr	r3, [sp]
 929 008e C3B1     		cbz	r3, .L170
 930 0090 3360     		str	r3, [r6]
 931 0092 C3E7     		b	.L160
 932              	.L162:
 933 0094 226A     		ldr	r2, [r4, #32]
 934 0096 6946     		mov	r1, sp
 935 0098 3846     		mov	r0, r7
 936 009a FFF7FEFF 		bl	sys_arch_mbox_fetch
 937 009e B0F1FF3F 		cmp	r0, #-1
 938 00a2 E7D1     		bne	.L163
 939 00a4 6FF00205 		mvn	r5, #2
 940 00a8 B8E7     		b	.L160
 941              	.L176:
 942 00aa 9DF90750 		ldrsb	r5, [sp, #7]
 943 00ae B5E7     		b	.L160
 944              	.L166:
 945 00b0 6FF00E05 		mvn	r5, #14
 946 00b4 B2E7     		b	.L160
 947              	.L167:
 948 00b6 6FF00E05 		mvn	r5, #14
 949 00ba AFE7     		b	.L160
 950              	.L175:
 951 00bc 6FF00605 		mvn	r5, #6
ARM GAS  /tmp/ccGe9U2e.s 			page 17


 952 00c0 ACE7     		b	.L160
 953              	.L170:
 954 00c2 6FF00E05 		mvn	r5, #14
 955 00c6 A9E7     		b	.L160
 956              	.L178:
 957              		.align	2
 958              	.L177:
 959 00c8 00000000 		.word	.LC0
 960 00cc 00000000 		.word	.LC20
 961 00d0 54000000 		.word	.LC2
 962 00d4 20000000 		.word	.LC21
 964              		.section	.text.netconn_recv_data,"ax",%progbits
 965              		.align	1
 966              		.syntax unified
 967              		.thumb
 968              		.thumb_func
 969              		.fpu fpv4-sp-d16
 971              	netconn_recv_data:
 972              		@ args = 0, pretend = 0, frame = 8
 973              		@ frame_needed = 0, uses_anonymous_args = 0
 974 0000 F0B5     		push	{r4, r5, r6, r7, lr}
 975 0002 83B0     		sub	sp, sp, #12
 976 0004 0023     		movs	r3, #0
 977 0006 0193     		str	r3, [sp, #4]
 978 0008 0029     		cmp	r1, #0
 979 000a 39D0     		beq	.L198
 980 000c 0446     		mov	r4, r0
 981 000e 1746     		mov	r7, r2
 982 0010 0E46     		mov	r6, r1
 983 0012 0023     		movs	r3, #0
 984 0014 0B60     		str	r3, [r1]
 985 0016 0028     		cmp	r0, #0
 986 0018 3CD0     		beq	.L199
 987 001a 00F11005 		add	r5, r0, #16
 988 001e 2846     		mov	r0, r5
 989 0020 FFF7FEFF 		bl	sys_mbox_valid
 990 0024 0028     		cmp	r0, #0
 991 0026 3FD0     		beq	.L200
 992 0028 94F82430 		ldrb	r3, [r4, #36]	@ zero_extendqisi2
 993 002c 13F0020F 		tst	r3, #2
 994 0030 09D1     		bne	.L184
 995 0032 17F0040F 		tst	r7, #4
 996 0036 06D1     		bne	.L184
 997 0038 13F0010F 		tst	r3, #1
 998 003c 03D1     		bne	.L184
 999 003e 94F90830 		ldrsb	r3, [r4, #8]
 1000 0042 002B     		cmp	r3, #0
 1001 0044 47D0     		beq	.L185
 1002              	.L184:
 1003 0046 01A9     		add	r1, sp, #4
 1004 0048 2846     		mov	r0, r5
 1005 004a FFF7FEFF 		bl	sys_arch_mbox_tryfetch
 1006 004e B0F1FF3F 		cmp	r0, #-1
 1007 0052 32D0     		beq	.L201
 1008              	.L186:
 1009 0054 2378     		ldrb	r3, [r4]	@ zero_extendqisi2
 1010 0056 03F0F003 		and	r3, r3, #240
ARM GAS  /tmp/ccGe9U2e.s 			page 18


 1011 005a 102B     		cmp	r3, #16
 1012 005c 46D0     		beq	.L202
 1013 005e 019B     		ldr	r3, [sp, #4]
 1014 0060 002B     		cmp	r3, #0
 1015 0062 53D0     		beq	.L203
 1016              	.L192:
 1017 0064 019B     		ldr	r3, [sp, #4]
 1018 0066 1B68     		ldr	r3, [r3]
 1019 0068 1A89     		ldrh	r2, [r3, #8]
 1020              	.L191:
 1021 006a E36A     		ldr	r3, [r4, #44]
 1022 006c 13B1     		cbz	r3, .L193
 1023 006e 0121     		movs	r1, #1
 1024 0070 2046     		mov	r0, r4
 1025 0072 9847     		blx	r3
 1026              	.L193:
 1027 0074 019B     		ldr	r3, [sp, #4]
 1028 0076 3360     		str	r3, [r6]
 1029 0078 0023     		movs	r3, #0
 1030              	.L181:
 1031 007a 1846     		mov	r0, r3
 1032 007c 03B0     		add	sp, sp, #12
 1033              		@ sp needed
 1034 007e F0BD     		pop	{r4, r5, r6, r7, pc}
 1035              	.L198:
 1036 0080 284B     		ldr	r3, .L204
 1037 0082 4FF41272 		mov	r2, #584
 1038 0086 2849     		ldr	r1, .L204+4
 1039 0088 2848     		ldr	r0, .L204+8
 1040 008a FFF7FEFF 		bl	printf
 1041 008e 6FF00F03 		mvn	r3, #15
 1042 0092 F2E7     		b	.L181
 1043              	.L199:
 1044 0094 234B     		ldr	r3, .L204
 1045 0096 40F24A22 		movw	r2, #586
 1046 009a 2549     		ldr	r1, .L204+12
 1047 009c 2348     		ldr	r0, .L204+8
 1048 009e FFF7FEFF 		bl	printf
 1049 00a2 6FF00F03 		mvn	r3, #15
 1050 00a6 E8E7     		b	.L181
 1051              	.L200:
 1052 00a8 2046     		mov	r0, r4
 1053 00aa FFF7FEFF 		bl	netconn_err
 1054 00ae 0346     		mov	r3, r0
 1055 00b0 0028     		cmp	r0, #0
 1056 00b2 E2D1     		bne	.L181
 1057 00b4 6FF00A03 		mvn	r3, #10
 1058 00b8 DFE7     		b	.L181
 1059              	.L201:
 1060 00ba 2046     		mov	r0, r4
 1061 00bc FFF7FEFF 		bl	netconn_err
 1062 00c0 0346     		mov	r3, r0
 1063 00c2 0028     		cmp	r0, #0
 1064 00c4 D9D1     		bne	.L181
 1065 00c6 94F82430 		ldrb	r3, [r4, #36]	@ zero_extendqisi2
 1066 00ca 13F0010F 		tst	r3, #1
 1067 00ce 25D0     		beq	.L195
ARM GAS  /tmp/ccGe9U2e.s 			page 19


 1068 00d0 6FF00A03 		mvn	r3, #10
 1069 00d4 D1E7     		b	.L181
 1070              	.L185:
 1071 00d6 226A     		ldr	r2, [r4, #32]
 1072 00d8 01A9     		add	r1, sp, #4
 1073 00da 2846     		mov	r0, r5
 1074 00dc FFF7FEFF 		bl	sys_arch_mbox_fetch
 1075 00e0 B0F1FF3F 		cmp	r0, #-1
 1076 00e4 B6D1     		bne	.L186
 1077 00e6 6FF00203 		mvn	r3, #2
 1078 00ea C6E7     		b	.L181
 1079              	.L202:
 1080 00ec 0DF10301 		add	r1, sp, #3
 1081 00f0 0198     		ldr	r0, [sp, #4]
 1082 00f2 FFF7FEFF 		bl	lwip_netconn_is_err_msg
 1083 00f6 30B1     		cbz	r0, .L188
 1084 00f8 9DF90330 		ldrsb	r3, [sp, #3]
 1085 00fc 13F10F0F 		cmn	r3, #15
 1086 0100 BBD1     		bne	.L181
 1087 0102 0023     		movs	r3, #0
 1088 0104 B9E7     		b	.L181
 1089              	.L188:
 1090 0106 019B     		ldr	r3, [sp, #4]
 1091 0108 1A89     		ldrh	r2, [r3, #8]
 1092 010a AEE7     		b	.L191
 1093              	.L203:
 1094 010c 054B     		ldr	r3, .L204
 1095 010e 40F29122 		movw	r2, #657
 1096 0112 0849     		ldr	r1, .L204+16
 1097 0114 0548     		ldr	r0, .L204+8
 1098 0116 FFF7FEFF 		bl	printf
 1099 011a A3E7     		b	.L192
 1100              	.L195:
 1101 011c 6FF00603 		mvn	r3, #6
 1102 0120 ABE7     		b	.L181
 1103              	.L205:
 1104 0122 00BF     		.align	2
 1105              	.L204:
 1106 0124 00000000 		.word	.LC0
 1107 0128 00000000 		.word	.LC22
 1108 012c 54000000 		.word	.LC2
 1109 0130 20000000 		.word	.LC23
 1110 0134 3C000000 		.word	.LC24
 1112              		.section	.text.netconn_recv_udp_raw_netbuf,"ax",%progbits
 1113              		.align	1
 1114              		.global	netconn_recv_udp_raw_netbuf
 1115              		.syntax unified
 1116              		.thumb
 1117              		.thumb_func
 1118              		.fpu fpv4-sp-d16
 1120              	netconn_recv_udp_raw_netbuf:
 1121              		@ args = 0, pretend = 0, frame = 0
 1122              		@ frame_needed = 0, uses_anonymous_args = 0
 1123 0000 10B5     		push	{r4, lr}
 1124 0002 40B1     		cbz	r0, .L207
 1125 0004 0378     		ldrb	r3, [r0]	@ zero_extendqisi2
 1126 0006 03F0F003 		and	r3, r3, #240
ARM GAS  /tmp/ccGe9U2e.s 			page 20


 1127 000a 102B     		cmp	r3, #16
 1128 000c 03D0     		beq	.L207
 1129 000e 0022     		movs	r2, #0
 1130 0010 FFF7FEFF 		bl	netconn_recv_data
 1131              	.L209:
 1132 0014 10BD     		pop	{r4, pc}
 1133              	.L207:
 1134 0016 054B     		ldr	r3, .L211
 1135 0018 40F23932 		movw	r2, #825
 1136 001c 0449     		ldr	r1, .L211+4
 1137 001e 0548     		ldr	r0, .L211+8
 1138 0020 FFF7FEFF 		bl	printf
 1139 0024 6FF00F00 		mvn	r0, #15
 1140 0028 F4E7     		b	.L209
 1141              	.L212:
 1142 002a 00BF     		.align	2
 1143              	.L211:
 1144 002c 00000000 		.word	.LC0
 1145 0030 00000000 		.word	.LC25
 1146 0034 54000000 		.word	.LC2
 1148              		.section	.text.netconn_recv_udp_raw_netbuf_flags,"ax",%progbits
 1149              		.align	1
 1150              		.global	netconn_recv_udp_raw_netbuf_flags
 1151              		.syntax unified
 1152              		.thumb
 1153              		.thumb_func
 1154              		.fpu fpv4-sp-d16
 1156              	netconn_recv_udp_raw_netbuf_flags:
 1157              		@ args = 0, pretend = 0, frame = 0
 1158              		@ frame_needed = 0, uses_anonymous_args = 0
 1159 0000 10B5     		push	{r4, lr}
 1160 0002 38B1     		cbz	r0, .L214
 1161 0004 0378     		ldrb	r3, [r0]	@ zero_extendqisi2
 1162 0006 03F0F003 		and	r3, r3, #240
 1163 000a 102B     		cmp	r3, #16
 1164 000c 02D0     		beq	.L214
 1165 000e FFF7FEFF 		bl	netconn_recv_data
 1166              	.L216:
 1167 0012 10BD     		pop	{r4, pc}
 1168              	.L214:
 1169 0014 044B     		ldr	r3, .L218
 1170 0016 40F24D32 		movw	r2, #845
 1171 001a 0449     		ldr	r1, .L218+4
 1172 001c 0448     		ldr	r0, .L218+8
 1173 001e FFF7FEFF 		bl	printf
 1174 0022 6FF00F00 		mvn	r0, #15
 1175 0026 F4E7     		b	.L216
 1176              	.L219:
 1177              		.align	2
 1178              	.L218:
 1179 0028 00000000 		.word	.LC0
 1180 002c 00000000 		.word	.LC25
 1181 0030 54000000 		.word	.LC2
 1183              		.section	.text.netconn_recv_data_tcp,"ax",%progbits
 1184              		.align	1
 1185              		.syntax unified
 1186              		.thumb
ARM GAS  /tmp/ccGe9U2e.s 			page 21


 1187              		.thumb_func
 1188              		.fpu fpv4-sp-d16
 1190              	netconn_recv_data_tcp:
 1191              		@ args = 0, pretend = 0, frame = 40
 1192              		@ frame_needed = 0, uses_anonymous_args = 0
 1193 0000 2DE9F041 		push	{r4, r5, r6, r7, r8, lr}
 1194 0004 8AB0     		sub	sp, sp, #40
 1195 0006 0446     		mov	r4, r0
 1196 0008 0F46     		mov	r7, r1
 1197 000a 1546     		mov	r5, r2
 1198 000c 1030     		adds	r0, r0, #16
 1199 000e FFF7FEFF 		bl	sys_mbox_valid
 1200 0012 0028     		cmp	r0, #0
 1201 0014 42D0     		beq	.L228
 1202 0016 94F82430 		ldrb	r3, [r4, #36]	@ zero_extendqisi2
 1203 001a 13F0800F 		tst	r3, #128
 1204 001e 1FD1     		bne	.L232
 1205 0020 05F00808 		and	r8, r5, #8
 1206 0024 2A46     		mov	r2, r5
 1207 0026 3946     		mov	r1, r7
 1208 0028 2046     		mov	r0, r4
 1209 002a FFF7FEFF 		bl	netconn_recv_data
 1210 002e 0646     		mov	r6, r0
 1211 0030 38BB     		cbnz	r0, .L221
 1212 0032 3F68     		ldr	r7, [r7]
 1213 0034 B8F1000F 		cmp	r8, #0
 1214 0038 05D1     		bne	.L224
 1215 003a 37B3     		cbz	r7, .L229
 1216 003c 3989     		ldrh	r1, [r7, #8]
 1217              	.L225:
 1218 003e 01AA     		add	r2, sp, #4
 1219 0040 2046     		mov	r0, r4
 1220 0042 FFF7FEFF 		bl	netconn_tcp_recvd_msg
 1221              	.L224:
 1222 0046 E7B9     		cbnz	r7, .L221
 1223 0048 15F0100F 		tst	r5, #16
 1224 004c 0CD0     		beq	.L223
 1225 004e 94F82430 		ldrb	r3, [r4, #36]	@ zero_extendqisi2
 1226 0052 43F08003 		orr	r3, r3, #128
 1227 0056 84F82430 		strb	r3, [r4, #36]
 1228 005a 6FF00606 		mvn	r6, #6
 1229 005e 10E0     		b	.L221
 1230              	.L232:
 1231 0060 03F07F03 		and	r3, r3, #127
 1232 0064 84F82430 		strb	r3, [r4, #36]
 1233              	.L223:
 1234 0068 E36A     		ldr	r3, [r4, #44]
 1235 006a 1BB1     		cbz	r3, .L226
 1236 006c 0022     		movs	r2, #0
 1237 006e 0121     		movs	r1, #1
 1238 0070 2046     		mov	r0, r4
 1239 0072 9847     		blx	r3
 1240              	.L226:
 1241 0074 6368     		ldr	r3, [r4, #4]
 1242 0076 53B9     		cbnz	r3, .L227
 1243 0078 2046     		mov	r0, r4
 1244 007a FFF7FEFF 		bl	netconn_err
ARM GAS  /tmp/ccGe9U2e.s 			page 22


 1245 007e 0646     		mov	r6, r0
 1246 0080 78B1     		cbz	r0, .L233
 1247              	.L221:
 1248 0082 3046     		mov	r0, r6
 1249 0084 0AB0     		add	sp, sp, #40
 1250              		@ sp needed
 1251 0086 BDE8F081 		pop	{r4, r5, r6, r7, r8, pc}
 1252              	.L229:
 1253 008a 0121     		movs	r1, #1
 1254 008c D7E7     		b	.L225
 1255              	.L227:
 1256 008e 0121     		movs	r1, #1
 1257 0090 2046     		mov	r0, r4
 1258 0092 FFF7FEFF 		bl	netconn_close_shutdown
 1259 0096 6FF00E06 		mvn	r6, #14
 1260 009a F2E7     		b	.L221
 1261              	.L228:
 1262 009c 6FF00A06 		mvn	r6, #10
 1263 00a0 EFE7     		b	.L221
 1264              	.L233:
 1265 00a2 6FF00D06 		mvn	r6, #13
 1266 00a6 ECE7     		b	.L221
 1268              		.section	.text.netconn_recv_tcp_pbuf,"ax",%progbits
 1269              		.align	1
 1270              		.global	netconn_recv_tcp_pbuf
 1271              		.syntax unified
 1272              		.thumb
 1273              		.thumb_func
 1274              		.fpu fpv4-sp-d16
 1276              	netconn_recv_tcp_pbuf:
 1277              		@ args = 0, pretend = 0, frame = 0
 1278              		@ frame_needed = 0, uses_anonymous_args = 0
 1279 0000 10B5     		push	{r4, lr}
 1280 0002 40B1     		cbz	r0, .L235
 1281 0004 0378     		ldrb	r3, [r0]	@ zero_extendqisi2
 1282 0006 03F0F003 		and	r3, r3, #240
 1283 000a 102B     		cmp	r3, #16
 1284 000c 03D1     		bne	.L235
 1285 000e 0022     		movs	r2, #0
 1286 0010 FFF7FEFF 		bl	netconn_recv_data_tcp
 1287              	.L237:
 1288 0014 10BD     		pop	{r4, pc}
 1289              	.L235:
 1290 0016 054B     		ldr	r3, .L239
 1291 0018 40F21132 		movw	r2, #785
 1292 001c 0449     		ldr	r1, .L239+4
 1293 001e 0548     		ldr	r0, .L239+8
 1294 0020 FFF7FEFF 		bl	printf
 1295 0024 6FF00F00 		mvn	r0, #15
 1296 0028 F4E7     		b	.L237
 1297              	.L240:
 1298 002a 00BF     		.align	2
 1299              	.L239:
 1300 002c 00000000 		.word	.LC0
 1301 0030 30000000 		.word	.LC1
 1302 0034 54000000 		.word	.LC2
 1304              		.section	.text.netconn_recv_tcp_pbuf_flags,"ax",%progbits
ARM GAS  /tmp/ccGe9U2e.s 			page 23


 1305              		.align	1
 1306              		.global	netconn_recv_tcp_pbuf_flags
 1307              		.syntax unified
 1308              		.thumb
 1309              		.thumb_func
 1310              		.fpu fpv4-sp-d16
 1312              	netconn_recv_tcp_pbuf_flags:
 1313              		@ args = 0, pretend = 0, frame = 0
 1314              		@ frame_needed = 0, uses_anonymous_args = 0
 1315 0000 10B5     		push	{r4, lr}
 1316 0002 38B1     		cbz	r0, .L242
 1317 0004 0378     		ldrb	r3, [r0]	@ zero_extendqisi2
 1318 0006 03F0F003 		and	r3, r3, #240
 1319 000a 102B     		cmp	r3, #16
 1320 000c 02D1     		bne	.L242
 1321 000e FFF7FEFF 		bl	netconn_recv_data_tcp
 1322              	.L244:
 1323 0012 10BD     		pop	{r4, pc}
 1324              	.L242:
 1325 0014 044B     		ldr	r3, .L246
 1326 0016 40F22632 		movw	r2, #806
 1327 001a 0449     		ldr	r1, .L246+4
 1328 001c 0448     		ldr	r0, .L246+8
 1329 001e FFF7FEFF 		bl	printf
 1330 0022 6FF00F00 		mvn	r0, #15
 1331 0026 F4E7     		b	.L244
 1332              	.L247:
 1333              		.align	2
 1334              	.L246:
 1335 0028 00000000 		.word	.LC0
 1336 002c 30000000 		.word	.LC1
 1337 0030 54000000 		.word	.LC2
 1339              		.section	.text.netconn_recv,"ax",%progbits
 1340              		.align	1
 1341              		.global	netconn_recv
 1342              		.syntax unified
 1343              		.thumb
 1344              		.thumb_func
 1345              		.fpu fpv4-sp-d16
 1347              	netconn_recv:
 1348              		@ args = 0, pretend = 0, frame = 8
 1349              		@ frame_needed = 0, uses_anonymous_args = 0
 1350 0000 70B5     		push	{r4, r5, r6, lr}
 1351 0002 82B0     		sub	sp, sp, #8
 1352 0004 11B3     		cbz	r1, .L258
 1353 0006 0446     		mov	r4, r0
 1354 0008 0D46     		mov	r5, r1
 1355 000a 0023     		movs	r3, #0
 1356 000c 0B60     		str	r3, [r1]
 1357 000e 38B3     		cbz	r0, .L259
 1358 0010 0378     		ldrb	r3, [r0]	@ zero_extendqisi2
 1359 0012 03F0F003 		and	r3, r3, #240
 1360 0016 102B     		cmp	r3, #16
 1361 0018 3CD1     		bne	.L252
 1362 001a 0023     		movs	r3, #0
 1363 001c 0193     		str	r3, [sp, #4]
 1364 001e 0620     		movs	r0, #6
ARM GAS  /tmp/ccGe9U2e.s 			page 24


 1365 0020 FFF7FEFF 		bl	memp_malloc
 1366 0024 0646     		mov	r6, r0
 1367 0026 0028     		cmp	r0, #0
 1368 0028 31D0     		beq	.L256
 1369 002a 0022     		movs	r2, #0
 1370 002c 01A9     		add	r1, sp, #4
 1371 002e 2046     		mov	r0, r4
 1372 0030 FFF7FEFF 		bl	netconn_recv_data_tcp
 1373 0034 0446     		mov	r4, r0
 1374 0036 E8B9     		cbnz	r0, .L260
 1375 0038 019B     		ldr	r3, [sp, #4]
 1376 003a 03B3     		cbz	r3, .L261
 1377              	.L255:
 1378 003c 019B     		ldr	r3, [sp, #4]
 1379 003e 3360     		str	r3, [r6]
 1380 0040 7360     		str	r3, [r6, #4]
 1381 0042 0023     		movs	r3, #0
 1382 0044 B381     		strh	r3, [r6, #12]	@ movhi
 1383 0046 B360     		str	r3, [r6, #8]
 1384 0048 2E60     		str	r6, [r5]
 1385 004a 27E0     		b	.L250
 1386              	.L258:
 1387 004c 154B     		ldr	r3, .L262
 1388 004e 40F26332 		movw	r2, #867
 1389 0052 1549     		ldr	r1, .L262+4
 1390 0054 1548     		ldr	r0, .L262+8
 1391 0056 FFF7FEFF 		bl	printf
 1392 005a 6FF00F04 		mvn	r4, #15
 1393 005e 1DE0     		b	.L250
 1394              	.L259:
 1395 0060 104B     		ldr	r3, .L262
 1396 0062 40F26532 		movw	r2, #869
 1397 0066 1249     		ldr	r1, .L262+12
 1398 0068 1048     		ldr	r0, .L262+8
 1399 006a FFF7FEFF 		bl	printf
 1400 006e 6FF00F04 		mvn	r4, #15
 1401 0072 13E0     		b	.L250
 1402              	.L260:
 1403 0074 3146     		mov	r1, r6
 1404 0076 0620     		movs	r0, #6
 1405 0078 FFF7FEFF 		bl	memp_free
 1406 007c 0EE0     		b	.L250
 1407              	.L261:
 1408 007e 094B     		ldr	r3, .L262
 1409 0080 40F27932 		movw	r2, #889
 1410 0084 0B49     		ldr	r1, .L262+16
 1411 0086 0948     		ldr	r0, .L262+8
 1412 0088 FFF7FEFF 		bl	printf
 1413 008c D6E7     		b	.L255
 1414              	.L256:
 1415 008e 4FF0FF34 		mov	r4, #-1
 1416 0092 03E0     		b	.L250
 1417              	.L252:
 1418 0094 0022     		movs	r2, #0
 1419 0096 FFF7FEFF 		bl	netconn_recv_data
 1420 009a 0446     		mov	r4, r0
 1421              	.L250:
ARM GAS  /tmp/ccGe9U2e.s 			page 25


 1422 009c 2046     		mov	r0, r4
 1423 009e 02B0     		add	sp, sp, #8
 1424              		@ sp needed
 1425 00a0 70BD     		pop	{r4, r5, r6, pc}
 1426              	.L263:
 1427 00a2 00BF     		.align	2
 1428              	.L262:
 1429 00a4 00000000 		.word	.LC0
 1430 00a8 00000000 		.word	.LC22
 1431 00ac 54000000 		.word	.LC2
 1432 00b0 20000000 		.word	.LC23
 1433 00b4 00000000 		.word	.LC26
 1435              		.section	.text.netconn_shutdown,"ax",%progbits
 1436              		.align	1
 1437              		.global	netconn_shutdown
 1438              		.syntax unified
 1439              		.thumb
 1440              		.thumb_func
 1441              		.fpu fpv4-sp-d16
 1443              	netconn_shutdown:
 1444              		@ args = 0, pretend = 0, frame = 0
 1445              		@ frame_needed = 0, uses_anonymous_args = 0
 1446 0000 08B5     		push	{r3, lr}
 1447 0002 31B1     		cbz	r1, .L267
 1448 0004 0121     		movs	r1, #1
 1449              	.L265:
 1450 0006 32B1     		cbz	r2, .L268
 1451 0008 0223     		movs	r3, #2
 1452              	.L266:
 1453 000a 1943     		orrs	r1, r1, r3
 1454 000c FFF7FEFF 		bl	netconn_close_shutdown
 1455 0010 08BD     		pop	{r3, pc}
 1456              	.L267:
 1457 0012 0021     		movs	r1, #0
 1458 0014 F7E7     		b	.L265
 1459              	.L268:
 1460 0016 0023     		movs	r3, #0
 1461 0018 F7E7     		b	.L266
 1463              		.section	.text.netconn_gethostbyname,"ax",%progbits
 1464              		.align	1
 1465              		.global	netconn_gethostbyname
 1466              		.syntax unified
 1467              		.thumb
 1468              		.thumb_func
 1469              		.fpu fpv4-sp-d16
 1471              	netconn_gethostbyname:
 1472              		@ args = 0, pretend = 0, frame = 24
 1473              		@ frame_needed = 0, uses_anonymous_args = 0
 1474 0000 10B5     		push	{r4, lr}
 1475 0002 86B0     		sub	sp, sp, #24
 1476 0004 90B1     		cbz	r0, .L275
 1477 0006 0346     		mov	r3, r0
 1478 0008 D1B1     		cbz	r1, .L276
 1479 000a 0DF10302 		add	r2, sp, #3
 1480 000e 0592     		str	r2, [sp, #20]
 1481 0010 01A8     		add	r0, sp, #4
 1482 0012 0490     		str	r0, [sp, #16]
ARM GAS  /tmp/ccGe9U2e.s 			page 26


 1483 0014 0391     		str	r1, [sp, #12]
 1484 0016 0293     		str	r3, [sp, #8]
 1485 0018 0021     		movs	r1, #0
 1486 001a FFF7FEFF 		bl	sys_sem_new
 1487 001e 0446     		mov	r4, r0
 1488 0020 8DF80300 		strb	r0, [sp, #3]
 1489 0024 B0B1     		cbz	r0, .L277
 1490              	.L272:
 1491 0026 2046     		mov	r0, r4
 1492 0028 06B0     		add	sp, sp, #24
 1493              		@ sp needed
 1494 002a 10BD     		pop	{r4, pc}
 1495              	.L275:
 1496 002c 104B     		ldr	r3, .L278
 1497 002e 40F20452 		movw	r2, #1284
 1498 0032 1049     		ldr	r1, .L278+4
 1499 0034 1048     		ldr	r0, .L278+8
 1500 0036 FFF7FEFF 		bl	printf
 1501 003a 6FF00F04 		mvn	r4, #15
 1502 003e F2E7     		b	.L272
 1503              	.L276:
 1504 0040 0B4B     		ldr	r3, .L278
 1505 0042 40F20552 		movw	r2, #1285
 1506 0046 0D49     		ldr	r1, .L278+12
 1507 0048 0B48     		ldr	r0, .L278+8
 1508 004a FFF7FEFF 		bl	printf
 1509 004e 6FF00F04 		mvn	r4, #15
 1510 0052 E8E7     		b	.L272
 1511              	.L277:
 1512 0054 049A     		ldr	r2, [sp, #16]
 1513 0056 02A9     		add	r1, sp, #8
 1514 0058 0948     		ldr	r0, .L278+16
 1515 005a FFF7FEFF 		bl	tcpip_send_msg_wait_sem
 1516 005e 0446     		mov	r4, r0
 1517 0060 0498     		ldr	r0, [sp, #16]
 1518 0062 FFF7FEFF 		bl	sys_sem_free
 1519 0066 002C     		cmp	r4, #0
 1520 0068 DDD1     		bne	.L272
 1521 006a 9DF90340 		ldrsb	r4, [sp, #3]
 1522 006e DAE7     		b	.L272
 1523              	.L279:
 1524              		.align	2
 1525              	.L278:
 1526 0070 00000000 		.word	.LC0
 1527 0074 00000000 		.word	.LC27
 1528 0078 54000000 		.word	.LC2
 1529 007c 24000000 		.word	.LC28
 1530 0080 00000000 		.word	lwip_netconn_do_gethostbyname
 1532              		.section	.rodata.netconn_accept.str1.4,"aMS",%progbits,1
 1533              		.align	2
 1534              	.LC20:
 1535 0000 6E657463 		.ascii	"netconn_accept: invalid pointer\000"
 1535      6F6E6E5F 
 1535      61636365 
 1535      70743A20 
 1535      696E7661 
 1536              	.LC21:
ARM GAS  /tmp/ccGe9U2e.s 			page 27


 1537 0020 6E657463 		.ascii	"netconn_accept: invalid conn\000"
 1537      6F6E6E5F 
 1537      61636365 
 1537      70743A20 
 1537      696E7661 
 1538              		.section	.rodata.netconn_bind.str1.4,"aMS",%progbits,1
 1539              		.align	2
 1540              	.LC11:
 1541 0000 6E657463 		.ascii	"netconn_bind: invalid conn\000"
 1541      6F6E6E5F 
 1541      62696E64 
 1541      3A20696E 
 1541      76616C69 
 1542              		.section	.rodata.netconn_bind_if.str1.4,"aMS",%progbits,1
 1543              		.align	2
 1544              	.LC12:
 1545 0000 6E657463 		.ascii	"netconn_bind_if: invalid conn\000"
 1545      6F6E6E5F 
 1545      62696E64 
 1545      5F69663A 
 1545      20696E76 
 1546              		.section	.rodata.netconn_close_shutdown.str1.4,"aMS",%progbits,1
 1547              		.align	2
 1548              	.LC3:
 1549 0000 6E657463 		.ascii	"netconn_close: invalid conn\000"
 1549      6F6E6E5F 
 1549      636C6F73 
 1549      653A2069 
 1549      6E76616C 
 1550              		.section	.rodata.netconn_connect.str1.4,"aMS",%progbits,1
 1551              		.align	2
 1552              	.LC13:
 1553 0000 6E657463 		.ascii	"netconn_connect: invalid conn\000"
 1553      6F6E6E5F 
 1553      636F6E6E 
 1553      6563743A 
 1553      20696E76 
 1554              		.section	.rodata.netconn_disconnect.str1.4,"aMS",%progbits,1
 1555              		.align	2
 1556              	.LC14:
 1557 0000 6E657463 		.ascii	"netconn_disconnect: invalid conn\000"
 1557      6F6E6E5F 
 1557      64697363 
 1557      6F6E6E65 
 1557      63743A20 
 1558              		.section	.rodata.netconn_getaddr.str1.4,"aMS",%progbits,1
 1559              		.align	2
 1560              	.LC8:
 1561 0000 6E657463 		.ascii	"netconn_getaddr: invalid conn\000"
 1561      6F6E6E5F 
 1561      67657461 
 1561      6464723A 
 1561      20696E76 
 1562 001e 0000     		.space	2
 1563              	.LC9:
 1564 0020 6E657463 		.ascii	"netconn_getaddr: invalid addr\000"
 1564      6F6E6E5F 
ARM GAS  /tmp/ccGe9U2e.s 			page 28


 1564      67657461 
 1564      6464723A 
 1564      20696E76 
 1565 003e 0000     		.space	2
 1566              	.LC10:
 1567 0040 6E657463 		.ascii	"netconn_getaddr: invalid port\000"
 1567      6F6E6E5F 
 1567      67657461 
 1567      6464723A 
 1567      20696E76 
 1568              		.section	.rodata.netconn_gethostbyname.str1.4,"aMS",%progbits,1
 1569              		.align	2
 1570              	.LC27:
 1571 0000 6E657463 		.ascii	"netconn_gethostbyname: invalid name\000"
 1571      6F6E6E5F 
 1571      67657468 
 1571      6F737462 
 1571      796E616D 
 1572              	.LC28:
 1573 0024 6E657463 		.ascii	"netconn_gethostbyname: invalid addr\000"
 1573      6F6E6E5F 
 1573      67657468 
 1573      6F737462 
 1573      796E616D 
 1574              		.section	.rodata.netconn_listen_with_backlog.str1.4,"aMS",%progbits,1
 1575              		.align	2
 1576              	.LC15:
 1577 0000 6E657463 		.ascii	"netconn_listen: invalid conn\000"
 1577      6F6E6E5F 
 1577      6C697374 
 1577      656E3A20 
 1577      696E7661 
 1578              		.section	.rodata.netconn_new_with_proto_and_callback.str1.4,"aMS",%progbits,1
 1579              		.align	2
 1580              	.LC4:
 1581 0000 66726565 		.ascii	"freeing conn without freeing pcb\000"
 1581      696E6720 
 1581      636F6E6E 
 1581      20776974 
 1581      686F7574 
 1582 0021 000000   		.space	3
 1583              	.LC5:
 1584 0024 636F6E6E 		.ascii	"conn has no recvmbox\000"
 1584      20686173 
 1584      206E6F20 
 1584      72656376 
 1584      6D626F78 
 1585 0039 000000   		.space	3
 1586              	.LC6:
 1587 003c 636F6E6E 		.ascii	"conn->acceptmbox shouldn't exist\000"
 1587      2D3E6163 
 1587      63657074 
 1587      6D626F78 
 1587      2073686F 
 1588 005d 000000   		.space	3
 1589              	.LC7:
 1590 0060 636F6E6E 		.ascii	"conn has no op_completed\000"
ARM GAS  /tmp/ccGe9U2e.s 			page 29


 1590      20686173 
 1590      206E6F20 
 1590      6F705F63 
 1590      6F6D706C 
 1591              		.section	.rodata.netconn_recv.str1.4,"aMS",%progbits,1
 1592              		.align	2
 1593              	.LC26:
 1594 0000 7020213D 		.ascii	"p != NULL\000"
 1594      204E554C 
 1594      4C00
 1595              		.section	.rodata.netconn_recv_data.str1.4,"aMS",%progbits,1
 1596              		.align	2
 1597              	.LC22:
 1598 0000 6E657463 		.ascii	"netconn_recv: invalid pointer\000"
 1598      6F6E6E5F 
 1598      72656376 
 1598      3A20696E 
 1598      76616C69 
 1599 001e 0000     		.space	2
 1600              	.LC23:
 1601 0020 6E657463 		.ascii	"netconn_recv: invalid conn\000"
 1601      6F6E6E5F 
 1601      72656376 
 1601      3A20696E 
 1601      76616C69 
 1602 003b 00       		.space	1
 1603              	.LC24:
 1604 003c 62756620 		.ascii	"buf != NULL\000"
 1604      213D204E 
 1604      554C4C00 
 1605              		.section	.rodata.netconn_recv_udp_raw_netbuf.str1.4,"aMS",%progbits,1
 1606              		.align	2
 1607              	.LC25:
 1608 0000 6E657463 		.ascii	"netconn_recv_udp_raw_netbuf: invalid conn\000"
 1608      6F6E6E5F 
 1608      72656376 
 1608      5F756470 
 1608      5F726177 
 1609              		.section	.rodata.netconn_send.str1.4,"aMS",%progbits,1
 1610              		.align	2
 1611              	.LC16:
 1612 0000 6E657463 		.ascii	"netconn_send: invalid conn\000"
 1612      6F6E6E5F 
 1612      73656E64 
 1612      3A20696E 
 1612      76616C69 
 1613              		.section	.rodata.netconn_tcp_recvd_msg.str1.4,"aMS",%progbits,1
 1614              		.align	2
 1615              	.LC0:
 1616 0000 4D696464 		.ascii	"Middlewares/Third_Party/LwIP/src/api/api_lib.c\000"
 1616      6C657761 
 1616      7265732F 
 1616      54686972 
 1616      645F5061 
 1617 002f 00       		.space	1
 1618              	.LC1:
 1619 0030 6E657463 		.ascii	"netconn_recv_tcp_pbuf: invalid conn\000"
ARM GAS  /tmp/ccGe9U2e.s 			page 30


 1619      6F6E6E5F 
 1619      72656376 
 1619      5F746370 
 1619      5F706275 
 1620              	.LC2:
 1621 0054 41737365 		.ascii	"Assertion \"%s\" failed at line %d in %s\012\000"
 1621      7274696F 
 1621      6E202225 
 1621      73222066 
 1621      61696C65 
 1622              		.section	.rodata.netconn_write_vectors_partly.str1.4,"aMS",%progbits,1
 1623              		.align	2
 1624              	.LC17:
 1625 0000 6E657463 		.ascii	"netconn_write: invalid conn\000"
 1625      6F6E6E5F 
 1625      77726974 
 1625      653A2069 
 1625      6E76616C 
 1626              	.LC18:
 1627 001c 6E657463 		.ascii	"netconn_write: invalid conn->type\000"
 1627      6F6E6E5F 
 1627      77726974 
 1627      653A2069 
 1627      6E76616C 
 1628 003e 0000     		.space	2
 1629              	.LC19:
 1630 0040 646F5F77 		.ascii	"do_write failed to write all bytes\000"
 1630      72697465 
 1630      20666169 
 1630      6C656420 
 1630      746F2077 
 1631              		.ident	"GCC: (GNU Tools for Arm Embedded Processors 8-2019-q3-update) 8.3.1 20190703 (release) [gc
ARM GAS  /tmp/ccGe9U2e.s 			page 31

