ARM GAS  /tmp/ccG9f0RW.s 			page 1


   1              		.cpu cortex-m4
   2              		.eabi_attribute 27, 1
   3              		.eabi_attribute 28, 1
   4              		.eabi_attribute 20, 1
   5              		.eabi_attribute 21, 1
   6              		.eabi_attribute 23, 3
   7              		.eabi_attribute 24, 1
   8              		.eabi_attribute 25, 1
   9              		.eabi_attribute 26, 1
  10              		.eabi_attribute 30, 1
  11              		.eabi_attribute 34, 1
  12              		.eabi_attribute 18, 4
  13              		.file	"cmsis_os2.c"
  14              		.text
  15              		.section	.text.TimerCallback,"ax",%progbits
  16              		.align	1
  17              		.arch armv7e-m
  18              		.syntax unified
  19              		.thumb
  20              		.thumb_func
  21              		.fpu fpv4-sp-d16
  23              	TimerCallback:
  24              		@ args = 0, pretend = 0, frame = 0
  25              		@ frame_needed = 0, uses_anonymous_args = 0
  26 0000 08B5     		push	{r3, lr}
  27 0002 FFF7FEFF 		bl	pvTimerGetTimerID
  28 0006 10B1     		cbz	r0, .L1
  29 0008 0268     		ldr	r2, [r0]
  30 000a 4068     		ldr	r0, [r0, #4]
  31 000c 9047     		blx	r2
  32              	.L1:
  33 000e 08BD     		pop	{r3, pc}
  35              		.section	.text.osKernelInitialize,"ax",%progbits
  36              		.align	1
  37              		.global	osKernelInitialize
  38              		.syntax unified
  39              		.thumb
  40              		.thumb_func
  41              		.fpu fpv4-sp-d16
  43              	osKernelInitialize:
  44              		@ args = 0, pretend = 0, frame = 0
  45              		@ frame_needed = 0, uses_anonymous_args = 0
  46              		@ link register save eliminated.
  47              		.syntax unified
  48              	@ 209 "Drivers/CMSIS/Include/cmsis_gcc.h" 1
  49 0000 EFF30583 		MRS r3, ipsr
  50              	@ 0 "" 2
  51              		.thumb
  52              		.syntax unified
  53 0004 7BB9     		cbnz	r3, .L8
  54              		.syntax unified
  55              	@ 386 "Drivers/CMSIS/Include/cmsis_gcc.h" 1
  56 0006 EFF31083 		MRS r3, primask
  57              	@ 0 "" 2
  58              		.thumb
  59              		.syntax unified
  60 000a 13B9     		cbnz	r3, .L6
ARM GAS  /tmp/ccG9f0RW.s 			page 2


  61              		.syntax unified
  62              	@ 465 "Drivers/CMSIS/Include/cmsis_gcc.h" 1
  63 000c EFF31183 		MRS r3, basepri
  64              	@ 0 "" 2
  65              		.thumb
  66              		.syntax unified
  67 0010 1BB1     		cbz	r3, .L7
  68              	.L6:
  69 0012 094B     		ldr	r3, .L11
  70 0014 1B68     		ldr	r3, [r3]
  71 0016 022B     		cmp	r3, #2
  72 0018 08D0     		beq	.L9
  73              	.L7:
  74 001a 074B     		ldr	r3, .L11
  75 001c 1868     		ldr	r0, [r3]
  76 001e 40B9     		cbnz	r0, .L10
  77 0020 0122     		movs	r2, #1
  78 0022 1A60     		str	r2, [r3]
  79 0024 7047     		bx	lr
  80              	.L8:
  81 0026 6FF00500 		mvn	r0, #5
  82 002a 7047     		bx	lr
  83              	.L9:
  84 002c 6FF00500 		mvn	r0, #5
  85 0030 7047     		bx	lr
  86              	.L10:
  87 0032 4FF0FF30 		mov	r0, #-1
  88 0036 7047     		bx	lr
  89              	.L12:
  90              		.align	2
  91              	.L11:
  92 0038 00000000 		.word	.LANCHOR0
  94              		.section	.text.osKernelGetInfo,"ax",%progbits
  95              		.align	1
  96              		.global	osKernelGetInfo
  97              		.syntax unified
  98              		.thumb
  99              		.thumb_func
 100              		.fpu fpv4-sp-d16
 102              	osKernelGetInfo:
 103              		@ args = 0, pretend = 0, frame = 0
 104              		@ frame_needed = 0, uses_anonymous_args = 0
 105 0000 10B5     		push	{r4, lr}
 106 0002 0C46     		mov	r4, r1
 107 0004 10B1     		cbz	r0, .L14
 108 0006 0749     		ldr	r1, .L19
 109 0008 0160     		str	r1, [r0]
 110 000a 4160     		str	r1, [r0, #4]
 111              	.L14:
 112 000c 3CB1     		cbz	r4, .L15
 113 000e 32B1     		cbz	r2, .L15
 114 0010 112A     		cmp	r2, #17
 115 0012 00D9     		bls	.L16
 116 0014 1122     		movs	r2, #17
 117              	.L16:
 118 0016 0449     		ldr	r1, .L19+4
 119 0018 2046     		mov	r0, r4
ARM GAS  /tmp/ccG9f0RW.s 			page 3


 120 001a FFF7FEFF 		bl	memcpy
 121              	.L15:
 122 001e 0020     		movs	r0, #0
 123 0020 10BD     		pop	{r4, pc}
 124              	.L20:
 125 0022 00BF     		.align	2
 126              	.L19:
 127 0024 20EFF505 		.word	100003616
 128 0028 00000000 		.word	.LC0
 130              		.section	.text.osKernelGetState,"ax",%progbits
 131              		.align	1
 132              		.global	osKernelGetState
 133              		.syntax unified
 134              		.thumb
 135              		.thumb_func
 136              		.fpu fpv4-sp-d16
 138              	osKernelGetState:
 139              		@ args = 0, pretend = 0, frame = 0
 140              		@ frame_needed = 0, uses_anonymous_args = 0
 141 0000 08B5     		push	{r3, lr}
 142 0002 FFF7FEFF 		bl	xTaskGetSchedulerState
 143 0006 40B1     		cbz	r0, .L23
 144 0008 0346     		mov	r3, r0
 145 000a 0228     		cmp	r0, #2
 146 000c 06D0     		beq	.L21
 147 000e 044B     		ldr	r3, .L26
 148 0010 1B68     		ldr	r3, [r3]
 149 0012 012B     		cmp	r3, #1
 150 0014 02D0     		beq	.L21
 151 0016 0023     		movs	r3, #0
 152 0018 00E0     		b	.L21
 153              	.L23:
 154 001a 0323     		movs	r3, #3
 155              	.L21:
 156 001c 1846     		mov	r0, r3
 157 001e 08BD     		pop	{r3, pc}
 158              	.L27:
 159              		.align	2
 160              	.L26:
 161 0020 00000000 		.word	.LANCHOR0
 163              		.section	.text.osKernelStart,"ax",%progbits
 164              		.align	1
 165              		.global	osKernelStart
 166              		.syntax unified
 167              		.thumb
 168              		.thumb_func
 169              		.fpu fpv4-sp-d16
 171              	osKernelStart:
 172              		@ args = 0, pretend = 0, frame = 0
 173              		@ frame_needed = 0, uses_anonymous_args = 0
 174 0000 08B5     		push	{r3, lr}
 175              		.syntax unified
 176              	@ 209 "Drivers/CMSIS/Include/cmsis_gcc.h" 1
 177 0002 EFF30583 		MRS r3, ipsr
 178              	@ 0 "" 2
 179              		.thumb
 180              		.syntax unified
ARM GAS  /tmp/ccG9f0RW.s 			page 4


 181 0006 A3B9     		cbnz	r3, .L32
 182              		.syntax unified
 183              	@ 386 "Drivers/CMSIS/Include/cmsis_gcc.h" 1
 184 0008 EFF31083 		MRS r3, primask
 185              	@ 0 "" 2
 186              		.thumb
 187              		.syntax unified
 188 000c 13B9     		cbnz	r3, .L30
 189              		.syntax unified
 190              	@ 465 "Drivers/CMSIS/Include/cmsis_gcc.h" 1
 191 000e EFF31183 		MRS r3, basepri
 192              	@ 0 "" 2
 193              		.thumb
 194              		.syntax unified
 195 0012 1BB1     		cbz	r3, .L31
 196              	.L30:
 197 0014 0B4B     		ldr	r3, .L36
 198 0016 1B68     		ldr	r3, [r3]
 199 0018 022B     		cmp	r3, #2
 200 001a 0DD0     		beq	.L33
 201              	.L31:
 202 001c 094B     		ldr	r3, .L36
 203 001e 1B68     		ldr	r3, [r3]
 204 0020 012B     		cmp	r3, #1
 205 0022 0CD1     		bne	.L34
 206 0024 074B     		ldr	r3, .L36
 207 0026 0222     		movs	r2, #2
 208 0028 1A60     		str	r2, [r3]
 209 002a FFF7FEFF 		bl	vTaskStartScheduler
 210 002e 0020     		movs	r0, #0
 211              	.L28:
 212 0030 08BD     		pop	{r3, pc}
 213              	.L32:
 214 0032 6FF00500 		mvn	r0, #5
 215 0036 FBE7     		b	.L28
 216              	.L33:
 217 0038 6FF00500 		mvn	r0, #5
 218 003c F8E7     		b	.L28
 219              	.L34:
 220 003e 4FF0FF30 		mov	r0, #-1
 221 0042 F5E7     		b	.L28
 222              	.L37:
 223              		.align	2
 224              	.L36:
 225 0044 00000000 		.word	.LANCHOR0
 227              		.section	.text.osKernelLock,"ax",%progbits
 228              		.align	1
 229              		.global	osKernelLock
 230              		.syntax unified
 231              		.thumb
 232              		.thumb_func
 233              		.fpu fpv4-sp-d16
 235              	osKernelLock:
 236              		@ args = 0, pretend = 0, frame = 0
 237              		@ frame_needed = 0, uses_anonymous_args = 0
 238 0000 08B5     		push	{r3, lr}
 239              		.syntax unified
ARM GAS  /tmp/ccG9f0RW.s 			page 5


 240              	@ 209 "Drivers/CMSIS/Include/cmsis_gcc.h" 1
 241 0002 EFF30583 		MRS r3, ipsr
 242              	@ 0 "" 2
 243              		.thumb
 244              		.syntax unified
 245 0006 93B9     		cbnz	r3, .L42
 246              		.syntax unified
 247              	@ 386 "Drivers/CMSIS/Include/cmsis_gcc.h" 1
 248 0008 EFF31083 		MRS r3, primask
 249              	@ 0 "" 2
 250              		.thumb
 251              		.syntax unified
 252 000c 13B9     		cbnz	r3, .L40
 253              		.syntax unified
 254              	@ 465 "Drivers/CMSIS/Include/cmsis_gcc.h" 1
 255 000e EFF31183 		MRS r3, basepri
 256              	@ 0 "" 2
 257              		.thumb
 258              		.syntax unified
 259 0012 1BB1     		cbz	r3, .L41
 260              	.L40:
 261 0014 0B4B     		ldr	r3, .L47
 262 0016 1B68     		ldr	r3, [r3]
 263 0018 022B     		cmp	r3, #2
 264 001a 0BD0     		beq	.L43
 265              	.L41:
 266 001c FFF7FEFF 		bl	xTaskGetSchedulerState
 267 0020 58B1     		cbz	r0, .L44
 268 0022 0228     		cmp	r0, #2
 269 0024 0BD1     		bne	.L45
 270 0026 FFF7FEFF 		bl	vTaskSuspendAll
 271 002a 0020     		movs	r0, #0
 272 002c 09E0     		b	.L38
 273              	.L42:
 274 002e 6FF00500 		mvn	r0, #5
 275 0032 06E0     		b	.L38
 276              	.L43:
 277 0034 6FF00500 		mvn	r0, #5
 278 0038 03E0     		b	.L38
 279              	.L44:
 280 003a 0120     		movs	r0, #1
 281 003c 01E0     		b	.L38
 282              	.L45:
 283 003e 4FF0FF30 		mov	r0, #-1
 284              	.L38:
 285 0042 08BD     		pop	{r3, pc}
 286              	.L48:
 287              		.align	2
 288              	.L47:
 289 0044 00000000 		.word	.LANCHOR0
 291              		.section	.text.osKernelUnlock,"ax",%progbits
 292              		.align	1
 293              		.global	osKernelUnlock
 294              		.syntax unified
 295              		.thumb
 296              		.thumb_func
 297              		.fpu fpv4-sp-d16
ARM GAS  /tmp/ccG9f0RW.s 			page 6


 299              	osKernelUnlock:
 300              		@ args = 0, pretend = 0, frame = 0
 301              		@ frame_needed = 0, uses_anonymous_args = 0
 302 0000 08B5     		push	{r3, lr}
 303              		.syntax unified
 304              	@ 209 "Drivers/CMSIS/Include/cmsis_gcc.h" 1
 305 0002 EFF30583 		MRS r3, ipsr
 306              	@ 0 "" 2
 307              		.thumb
 308              		.syntax unified
 309 0006 D3B9     		cbnz	r3, .L54
 310              		.syntax unified
 311              	@ 386 "Drivers/CMSIS/Include/cmsis_gcc.h" 1
 312 0008 EFF31083 		MRS r3, primask
 313              	@ 0 "" 2
 314              		.thumb
 315              		.syntax unified
 316 000c 13B9     		cbnz	r3, .L51
 317              		.syntax unified
 318              	@ 465 "Drivers/CMSIS/Include/cmsis_gcc.h" 1
 319 000e EFF31183 		MRS r3, basepri
 320              	@ 0 "" 2
 321              		.thumb
 322              		.syntax unified
 323 0012 1BB1     		cbz	r3, .L52
 324              	.L51:
 325 0014 0F4B     		ldr	r3, .L59
 326 0016 1B68     		ldr	r3, [r3]
 327 0018 022B     		cmp	r3, #2
 328 001a 13D0     		beq	.L55
 329              	.L52:
 330 001c FFF7FEFF 		bl	xTaskGetSchedulerState
 331 0020 20B1     		cbz	r0, .L53
 332 0022 0228     		cmp	r0, #2
 333 0024 11D0     		beq	.L56
 334 0026 4FF0FF30 		mov	r0, #-1
 335              	.L49:
 336 002a 08BD     		pop	{r3, pc}
 337              	.L53:
 338 002c FFF7FEFF 		bl	xTaskResumeAll
 339 0030 0128     		cmp	r0, #1
 340 0032 FAD0     		beq	.L49
 341 0034 FFF7FEFF 		bl	xTaskGetSchedulerState
 342 0038 48B1     		cbz	r0, .L57
 343 003a 0120     		movs	r0, #1
 344 003c F5E7     		b	.L49
 345              	.L54:
 346 003e 6FF00500 		mvn	r0, #5
 347 0042 F2E7     		b	.L49
 348              	.L55:
 349 0044 6FF00500 		mvn	r0, #5
 350 0048 EFE7     		b	.L49
 351              	.L56:
 352 004a 0020     		movs	r0, #0
 353 004c EDE7     		b	.L49
 354              	.L57:
 355 004e 4FF0FF30 		mov	r0, #-1
ARM GAS  /tmp/ccG9f0RW.s 			page 7


 356 0052 EAE7     		b	.L49
 357              	.L60:
 358              		.align	2
 359              	.L59:
 360 0054 00000000 		.word	.LANCHOR0
 362              		.section	.text.osKernelRestoreLock,"ax",%progbits
 363              		.align	1
 364              		.global	osKernelRestoreLock
 365              		.syntax unified
 366              		.thumb
 367              		.thumb_func
 368              		.fpu fpv4-sp-d16
 370              	osKernelRestoreLock:
 371              		@ args = 0, pretend = 0, frame = 0
 372              		@ frame_needed = 0, uses_anonymous_args = 0
 373 0000 10B5     		push	{r4, lr}
 374              		.syntax unified
 375              	@ 209 "Drivers/CMSIS/Include/cmsis_gcc.h" 1
 376 0002 EFF30583 		MRS r3, ipsr
 377              	@ 0 "" 2
 378              		.thumb
 379              		.syntax unified
 380 0006 13BB     		cbnz	r3, .L67
 381 0008 0446     		mov	r4, r0
 382              		.syntax unified
 383              	@ 386 "Drivers/CMSIS/Include/cmsis_gcc.h" 1
 384 000a EFF31083 		MRS r3, primask
 385              	@ 0 "" 2
 386              		.thumb
 387              		.syntax unified
 388 000e 13B9     		cbnz	r3, .L63
 389              		.syntax unified
 390              	@ 465 "Drivers/CMSIS/Include/cmsis_gcc.h" 1
 391 0010 EFF31183 		MRS r3, basepri
 392              	@ 0 "" 2
 393              		.thumb
 394              		.syntax unified
 395 0014 1BB1     		cbz	r3, .L64
 396              	.L63:
 397 0016 144B     		ldr	r3, .L75
 398 0018 1B68     		ldr	r3, [r3]
 399 001a 022B     		cmp	r3, #2
 400 001c 1AD0     		beq	.L68
 401              	.L64:
 402 001e FFF7FEFF 		bl	xTaskGetSchedulerState
 403 0022 08B1     		cbz	r0, .L65
 404 0024 0228     		cmp	r0, #2
 405 0026 18D1     		bne	.L69
 406              	.L65:
 407 0028 012C     		cmp	r4, #1
 408 002a 06D0     		beq	.L73
 409 002c C4B9     		cbnz	r4, .L70
 410 002e FFF7FEFF 		bl	xTaskResumeAll
 411 0032 0128     		cmp	r0, #1
 412 0034 04D1     		bne	.L74
 413              	.L62:
 414 0036 2046     		mov	r0, r4
ARM GAS  /tmp/ccG9f0RW.s 			page 8


 415 0038 10BD     		pop	{r4, pc}
 416              	.L73:
 417 003a FFF7FEFF 		bl	vTaskSuspendAll
 418 003e FAE7     		b	.L62
 419              	.L74:
 420 0040 FFF7FEFF 		bl	xTaskGetSchedulerState
 421 0044 0228     		cmp	r0, #2
 422 0046 F6D0     		beq	.L62
 423 0048 4FF0FF34 		mov	r4, #-1
 424 004c F3E7     		b	.L62
 425              	.L67:
 426 004e 6FF00504 		mvn	r4, #5
 427 0052 F0E7     		b	.L62
 428              	.L68:
 429 0054 6FF00504 		mvn	r4, #5
 430 0058 EDE7     		b	.L62
 431              	.L69:
 432 005a 4FF0FF34 		mov	r4, #-1
 433 005e EAE7     		b	.L62
 434              	.L70:
 435 0060 4FF0FF34 		mov	r4, #-1
 436 0064 E7E7     		b	.L62
 437              	.L76:
 438 0066 00BF     		.align	2
 439              	.L75:
 440 0068 00000000 		.word	.LANCHOR0
 442              		.section	.text.osKernelGetTickCount,"ax",%progbits
 443              		.align	1
 444              		.global	osKernelGetTickCount
 445              		.syntax unified
 446              		.thumb
 447              		.thumb_func
 448              		.fpu fpv4-sp-d16
 450              	osKernelGetTickCount:
 451              		@ args = 0, pretend = 0, frame = 0
 452              		@ frame_needed = 0, uses_anonymous_args = 0
 453 0000 08B5     		push	{r3, lr}
 454              		.syntax unified
 455              	@ 209 "Drivers/CMSIS/Include/cmsis_gcc.h" 1
 456 0002 EFF30583 		MRS r3, ipsr
 457              	@ 0 "" 2
 458              		.thumb
 459              		.syntax unified
 460 0006 63B9     		cbnz	r3, .L78
 461              		.syntax unified
 462              	@ 386 "Drivers/CMSIS/Include/cmsis_gcc.h" 1
 463 0008 EFF31083 		MRS r3, primask
 464              	@ 0 "" 2
 465              		.thumb
 466              		.syntax unified
 467 000c 13B9     		cbnz	r3, .L79
 468              		.syntax unified
 469              	@ 465 "Drivers/CMSIS/Include/cmsis_gcc.h" 1
 470 000e EFF31183 		MRS r3, basepri
 471              	@ 0 "" 2
 472              		.thumb
 473              		.syntax unified
ARM GAS  /tmp/ccG9f0RW.s 			page 9


 474 0012 1BB1     		cbz	r3, .L80
 475              	.L79:
 476 0014 044B     		ldr	r3, .L83
 477 0016 1B68     		ldr	r3, [r3]
 478 0018 022B     		cmp	r3, #2
 479 001a 02D0     		beq	.L78
 480              	.L80:
 481 001c FFF7FEFF 		bl	xTaskGetTickCount
 482 0020 01E0     		b	.L77
 483              	.L78:
 484 0022 FFF7FEFF 		bl	xTaskGetTickCountFromISR
 485              	.L77:
 486 0026 08BD     		pop	{r3, pc}
 487              	.L84:
 488              		.align	2
 489              	.L83:
 490 0028 00000000 		.word	.LANCHOR0
 492              		.section	.text.osKernelGetTickFreq,"ax",%progbits
 493              		.align	1
 494              		.global	osKernelGetTickFreq
 495              		.syntax unified
 496              		.thumb
 497              		.thumb_func
 498              		.fpu fpv4-sp-d16
 500              	osKernelGetTickFreq:
 501              		@ args = 0, pretend = 0, frame = 0
 502              		@ frame_needed = 0, uses_anonymous_args = 0
 503              		@ link register save eliminated.
 504 0000 4FF47A70 		mov	r0, #1000
 505 0004 7047     		bx	lr
 507              		.section	.text.osKernelGetSysTimerCount,"ax",%progbits
 508              		.align	1
 509              		.global	osKernelGetSysTimerCount
 510              		.syntax unified
 511              		.thumb
 512              		.thumb_func
 513              		.fpu fpv4-sp-d16
 515              	osKernelGetSysTimerCount:
 516              		@ args = 0, pretend = 0, frame = 0
 517              		@ frame_needed = 0, uses_anonymous_args = 0
 518 0000 10B5     		push	{r4, lr}
 519              		.syntax unified
 520              	@ 386 "Drivers/CMSIS/Include/cmsis_gcc.h" 1
 521 0002 EFF31083 		MRS r3, primask
 522              	@ 0 "" 2
 523              		.thumb
 524              		.syntax unified
 525 0006 23B9     		cbnz	r3, .L89
 526              		.syntax unified
 527              	@ 465 "Drivers/CMSIS/Include/cmsis_gcc.h" 1
 528 0008 EFF31183 		MRS r3, basepri
 529              	@ 0 "" 2
 530              		.thumb
 531              		.syntax unified
 532 000c 83B9     		cbnz	r3, .L90
 533 000e 0024     		movs	r4, #0
 534 0010 00E0     		b	.L87
ARM GAS  /tmp/ccG9f0RW.s 			page 10


 535              	.L89:
 536 0012 0124     		movs	r4, #1
 537              	.L87:
 538              		.syntax unified
 539              	@ 142 "Drivers/CMSIS/Include/cmsis_gcc.h" 1
 540 0014 72B6     		cpsid i
 541              	@ 0 "" 2
 542              		.thumb
 543              		.syntax unified
 544 0016 FFF7FEFF 		bl	xTaskGetTickCount
 545 001a 064B     		ldr	r3, .L92
 546 001c 1B68     		ldr	r3, [r3]
 547 001e 064A     		ldr	r2, .L92+4
 548 0020 A2FB0323 		umull	r2, r3, r2, r3
 549 0024 9B09     		lsrs	r3, r3, #6
 550 0026 00FB03F0 		mul	r0, r0, r3
 551 002a 04B9     		cbnz	r4, .L86
 552              		.syntax unified
 553              	@ 131 "Drivers/CMSIS/Include/cmsis_gcc.h" 1
 554 002c 62B6     		cpsie i
 555              	@ 0 "" 2
 556              		.thumb
 557              		.syntax unified
 558              	.L86:
 559 002e 10BD     		pop	{r4, pc}
 560              	.L90:
 561 0030 0124     		movs	r4, #1
 562 0032 EFE7     		b	.L87
 563              	.L93:
 564              		.align	2
 565              	.L92:
 566 0034 00000000 		.word	SystemCoreClock
 567 0038 D34D6210 		.word	274877907
 569              		.section	.text.osKernelGetSysTimerFreq,"ax",%progbits
 570              		.align	1
 571              		.global	osKernelGetSysTimerFreq
 572              		.syntax unified
 573              		.thumb
 574              		.thumb_func
 575              		.fpu fpv4-sp-d16
 577              	osKernelGetSysTimerFreq:
 578              		@ args = 0, pretend = 0, frame = 0
 579              		@ frame_needed = 0, uses_anonymous_args = 0
 580              		@ link register save eliminated.
 581 0000 014B     		ldr	r3, .L95
 582 0002 1868     		ldr	r0, [r3]
 583 0004 7047     		bx	lr
 584              	.L96:
 585 0006 00BF     		.align	2
 586              	.L95:
 587 0008 00000000 		.word	SystemCoreClock
 589              		.section	.text.osThreadNew,"ax",%progbits
 590              		.align	1
 591              		.global	osThreadNew
 592              		.syntax unified
 593              		.thumb
 594              		.thumb_func
ARM GAS  /tmp/ccG9f0RW.s 			page 11


 595              		.fpu fpv4-sp-d16
 597              	osThreadNew:
 598              		@ args = 0, pretend = 0, frame = 8
 599              		@ frame_needed = 0, uses_anonymous_args = 0
 600 0000 F0B5     		push	{r4, r5, r6, r7, lr}
 601 0002 87B0     		sub	sp, sp, #28
 602 0004 0024     		movs	r4, #0
 603 0006 0594     		str	r4, [sp, #20]
 604              		.syntax unified
 605              	@ 209 "Drivers/CMSIS/Include/cmsis_gcc.h" 1
 606 0008 EFF30584 		MRS r4, ipsr
 607              	@ 0 "" 2
 608              		.thumb
 609              		.syntax unified
 610 000c 002C     		cmp	r4, #0
 611 000e 38D1     		bne	.L98
 612              		.syntax unified
 613              	@ 386 "Drivers/CMSIS/Include/cmsis_gcc.h" 1
 614 0010 EFF31083 		MRS r3, primask
 615              	@ 0 "" 2
 616              		.thumb
 617              		.syntax unified
 618 0014 13B9     		cbnz	r3, .L99
 619              		.syntax unified
 620              	@ 465 "Drivers/CMSIS/Include/cmsis_gcc.h" 1
 621 0016 EFF31183 		MRS r3, basepri
 622              	@ 0 "" 2
 623              		.thumb
 624              		.syntax unified
 625 001a 1BB1     		cbz	r3, .L100
 626              	.L99:
 627 001c 2D4B     		ldr	r3, .L120
 628 001e 1B68     		ldr	r3, [r3]
 629 0020 022B     		cmp	r3, #2
 630 0022 2ED0     		beq	.L98
 631              	.L100:
 632 0024 68B3     		cbz	r0, .L98
 633 0026 22B3     		cbz	r2, .L107
 634 0028 1668     		ldr	r6, [r2]
 635 002a 9469     		ldr	r4, [r2, #24]
 636 002c 04B9     		cbnz	r4, .L102
 637 002e 1824     		movs	r4, #24
 638              	.L102:
 639 0030 631E     		subs	r3, r4, #1
 640 0032 372B     		cmp	r3, #55
 641 0034 49D8     		bhi	.L109
 642 0036 5368     		ldr	r3, [r2, #4]
 643 0038 13F0010F 		tst	r3, #1
 644 003c 47D1     		bne	.L110
 645 003e 5569     		ldr	r5, [r2, #20]
 646 0040 6DB1     		cbz	r5, .L111
 647 0042 4FEA950C 		lsr	ip, r5, #2
 648              	.L104:
 649 0046 9368     		ldr	r3, [r2, #8]
 650 0048 2BB1     		cbz	r3, .L105
 651 004a D768     		ldr	r7, [r2, #12]
 652 004c 632F     		cmp	r7, #99
ARM GAS  /tmp/ccG9f0RW.s 			page 12


 653 004e 02D9     		bls	.L105
 654 0050 1769     		ldr	r7, [r2, #16]
 655 0052 07B1     		cbz	r7, .L105
 656 0054 C5B9     		cbnz	r5, .L112
 657              	.L105:
 658 0056 2BB1     		cbz	r3, .L117
 659 0058 4FF0FF35 		mov	r5, #-1
 660 005c 0EE0     		b	.L101
 661              	.L111:
 662 005e 4FF0800C 		mov	ip, #128
 663 0062 F0E7     		b	.L104
 664              	.L117:
 665 0064 D368     		ldr	r3, [r2, #12]
 666 0066 8BB9     		cbnz	r3, .L114
 667 0068 1369     		ldr	r3, [r2, #16]
 668 006a 93B1     		cbz	r3, .L115
 669 006c 4FF0FF35 		mov	r5, #-1
 670 0070 04E0     		b	.L101
 671              	.L107:
 672 0072 1646     		mov	r6, r2
 673 0074 0025     		movs	r5, #0
 674 0076 1824     		movs	r4, #24
 675 0078 4FF0800C 		mov	ip, #128
 676              	.L101:
 677 007c 012D     		cmp	r5, #1
 678 007e 0AD0     		beq	.L118
 679 0080 ADB1     		cbz	r5, .L119
 680              	.L98:
 681 0082 0598     		ldr	r0, [sp, #20]
 682              	.L97:
 683 0084 07B0     		add	sp, sp, #28
 684              		@ sp needed
 685 0086 F0BD     		pop	{r4, r5, r6, r7, pc}
 686              	.L112:
 687 0088 0125     		movs	r5, #1
 688 008a F7E7     		b	.L101
 689              	.L114:
 690 008c 4FF0FF35 		mov	r5, #-1
 691 0090 F4E7     		b	.L101
 692              	.L115:
 693 0092 0025     		movs	r5, #0
 694 0094 F2E7     		b	.L101
 695              	.L118:
 696 0096 1369     		ldr	r3, [r2, #16]
 697 0098 9268     		ldr	r2, [r2, #8]
 698 009a 0292     		str	r2, [sp, #8]
 699 009c 0193     		str	r3, [sp, #4]
 700 009e 0094     		str	r4, [sp]
 701 00a0 0B46     		mov	r3, r1
 702 00a2 6246     		mov	r2, ip
 703 00a4 3146     		mov	r1, r6
 704 00a6 FFF7FEFF 		bl	xTaskCreateStatic
 705 00aa 0590     		str	r0, [sp, #20]
 706 00ac E9E7     		b	.L98
 707              	.L119:
 708 00ae 05AA     		add	r2, sp, #20
 709 00b0 0192     		str	r2, [sp, #4]
ARM GAS  /tmp/ccG9f0RW.s 			page 13


 710 00b2 0094     		str	r4, [sp]
 711 00b4 0B46     		mov	r3, r1
 712 00b6 1FFA8CF2 		uxth	r2, ip
 713 00ba 3146     		mov	r1, r6
 714 00bc FFF7FEFF 		bl	xTaskCreate
 715 00c0 0128     		cmp	r0, #1
 716 00c2 DED0     		beq	.L98
 717 00c4 0023     		movs	r3, #0
 718 00c6 0593     		str	r3, [sp, #20]
 719 00c8 DBE7     		b	.L98
 720              	.L109:
 721 00ca 0020     		movs	r0, #0
 722 00cc DAE7     		b	.L97
 723              	.L110:
 724 00ce 0020     		movs	r0, #0
 725 00d0 D8E7     		b	.L97
 726              	.L121:
 727 00d2 00BF     		.align	2
 728              	.L120:
 729 00d4 00000000 		.word	.LANCHOR0
 731              		.section	.text.osThreadGetName,"ax",%progbits
 732              		.align	1
 733              		.global	osThreadGetName
 734              		.syntax unified
 735              		.thumb
 736              		.thumb_func
 737              		.fpu fpv4-sp-d16
 739              	osThreadGetName:
 740              		@ args = 0, pretend = 0, frame = 0
 741              		@ frame_needed = 0, uses_anonymous_args = 0
 742 0000 08B5     		push	{r3, lr}
 743              		.syntax unified
 744              	@ 209 "Drivers/CMSIS/Include/cmsis_gcc.h" 1
 745 0002 EFF30583 		MRS r3, ipsr
 746              	@ 0 "" 2
 747              		.thumb
 748              		.syntax unified
 749 0006 6BB9     		cbnz	r3, .L126
 750              		.syntax unified
 751              	@ 386 "Drivers/CMSIS/Include/cmsis_gcc.h" 1
 752 0008 EFF31083 		MRS r3, primask
 753              	@ 0 "" 2
 754              		.thumb
 755              		.syntax unified
 756 000c 13B9     		cbnz	r3, .L124
 757              		.syntax unified
 758              	@ 465 "Drivers/CMSIS/Include/cmsis_gcc.h" 1
 759 000e EFF31183 		MRS r3, basepri
 760              	@ 0 "" 2
 761              		.thumb
 762              		.syntax unified
 763 0012 1BB1     		cbz	r3, .L125
 764              	.L124:
 765 0014 054B     		ldr	r3, .L130
 766 0016 1B68     		ldr	r3, [r3]
 767 0018 022B     		cmp	r3, #2
 768 001a 05D0     		beq	.L127
ARM GAS  /tmp/ccG9f0RW.s 			page 14


 769              	.L125:
 770 001c 08B1     		cbz	r0, .L122
 771 001e FFF7FEFF 		bl	pcTaskGetName
 772              	.L122:
 773 0022 08BD     		pop	{r3, pc}
 774              	.L126:
 775 0024 0020     		movs	r0, #0
 776 0026 FCE7     		b	.L122
 777              	.L127:
 778 0028 0020     		movs	r0, #0
 779 002a FAE7     		b	.L122
 780              	.L131:
 781              		.align	2
 782              	.L130:
 783 002c 00000000 		.word	.LANCHOR0
 785              		.section	.text.osThreadGetId,"ax",%progbits
 786              		.align	1
 787              		.global	osThreadGetId
 788              		.syntax unified
 789              		.thumb
 790              		.thumb_func
 791              		.fpu fpv4-sp-d16
 793              	osThreadGetId:
 794              		@ args = 0, pretend = 0, frame = 0
 795              		@ frame_needed = 0, uses_anonymous_args = 0
 796 0000 08B5     		push	{r3, lr}
 797 0002 FFF7FEFF 		bl	xTaskGetCurrentTaskHandle
 798 0006 08BD     		pop	{r3, pc}
 800              		.section	.text.osThreadGetState,"ax",%progbits
 801              		.align	1
 802              		.global	osThreadGetState
 803              		.syntax unified
 804              		.thumb
 805              		.thumb_func
 806              		.fpu fpv4-sp-d16
 808              	osThreadGetState:
 809              		@ args = 0, pretend = 0, frame = 0
 810              		@ frame_needed = 0, uses_anonymous_args = 0
 811 0000 08B5     		push	{r3, lr}
 812              		.syntax unified
 813              	@ 209 "Drivers/CMSIS/Include/cmsis_gcc.h" 1
 814 0002 EFF30583 		MRS r3, ipsr
 815              	@ 0 "" 2
 816              		.thumb
 817              		.syntax unified
 818 0006 E3B9     		cbnz	r3, .L143
 819              		.syntax unified
 820              	@ 386 "Drivers/CMSIS/Include/cmsis_gcc.h" 1
 821 0008 EFF31083 		MRS r3, primask
 822              	@ 0 "" 2
 823              		.thumb
 824              		.syntax unified
 825 000c 13B9     		cbnz	r3, .L136
 826              		.syntax unified
 827              	@ 465 "Drivers/CMSIS/Include/cmsis_gcc.h" 1
 828 000e EFF31183 		MRS r3, basepri
 829              	@ 0 "" 2
ARM GAS  /tmp/ccG9f0RW.s 			page 15


 830              		.thumb
 831              		.syntax unified
 832 0012 1BB1     		cbz	r3, .L137
 833              	.L136:
 834 0014 104B     		ldr	r3, .L148
 835 0016 1B68     		ldr	r3, [r3]
 836 0018 022B     		cmp	r3, #2
 837 001a 15D0     		beq	.L144
 838              	.L137:
 839 001c B8B1     		cbz	r0, .L145
 840 001e FFF7FEFF 		bl	eTaskGetState
 841 0022 0428     		cmp	r0, #4
 842 0024 0AD8     		bhi	.L138
 843 0026 DFE800F0 		tbb	[pc, r0]
 844              	.L140:
 845 002a 03       		.byte	(.L142-.L140)/2
 846 002b 15       		.byte	(.L146-.L140)/2
 847 002c 05       		.byte	(.L141-.L140)/2
 848 002d 05       		.byte	(.L141-.L140)/2
 849 002e 07       		.byte	(.L139-.L140)/2
 850 002f 00       		.p2align 1
 851              	.L142:
 852 0030 0220     		movs	r0, #2
 853 0032 10E0     		b	.L134
 854              	.L141:
 855 0034 0320     		movs	r0, #3
 856 0036 0EE0     		b	.L134
 857              	.L139:
 858 0038 0420     		movs	r0, #4
 859 003a 0CE0     		b	.L134
 860              	.L138:
 861 003c 4FF0FF30 		mov	r0, #-1
 862 0040 09E0     		b	.L134
 863              	.L143:
 864 0042 4FF0FF30 		mov	r0, #-1
 865 0046 06E0     		b	.L134
 866              	.L144:
 867 0048 4FF0FF30 		mov	r0, #-1
 868 004c 03E0     		b	.L134
 869              	.L145:
 870 004e 4FF0FF30 		mov	r0, #-1
 871 0052 00E0     		b	.L134
 872              	.L146:
 873 0054 0120     		movs	r0, #1
 874              	.L134:
 875 0056 08BD     		pop	{r3, pc}
 876              	.L149:
 877              		.align	2
 878              	.L148:
 879 0058 00000000 		.word	.LANCHOR0
 881              		.section	.text.osThreadGetStackSpace,"ax",%progbits
 882              		.align	1
 883              		.global	osThreadGetStackSpace
 884              		.syntax unified
 885              		.thumb
 886              		.thumb_func
 887              		.fpu fpv4-sp-d16
ARM GAS  /tmp/ccG9f0RW.s 			page 16


 889              	osThreadGetStackSpace:
 890              		@ args = 0, pretend = 0, frame = 0
 891              		@ frame_needed = 0, uses_anonymous_args = 0
 892 0000 08B5     		push	{r3, lr}
 893 0002 0346     		mov	r3, r0
 894              		.syntax unified
 895              	@ 209 "Drivers/CMSIS/Include/cmsis_gcc.h" 1
 896 0004 EFF30580 		MRS r0, ipsr
 897              	@ 0 "" 2
 898              		.thumb
 899              		.syntax unified
 900 0008 70B9     		cbnz	r0, .L154
 901              		.syntax unified
 902              	@ 386 "Drivers/CMSIS/Include/cmsis_gcc.h" 1
 903 000a EFF31082 		MRS r2, primask
 904              	@ 0 "" 2
 905              		.thumb
 906              		.syntax unified
 907 000e 12B9     		cbnz	r2, .L152
 908              		.syntax unified
 909              	@ 465 "Drivers/CMSIS/Include/cmsis_gcc.h" 1
 910 0010 EFF31182 		MRS r2, basepri
 911              	@ 0 "" 2
 912              		.thumb
 913              		.syntax unified
 914 0014 1AB1     		cbz	r2, .L153
 915              	.L152:
 916 0016 054A     		ldr	r2, .L156
 917 0018 1268     		ldr	r2, [r2]
 918 001a 022A     		cmp	r2, #2
 919 001c 05D0     		beq	.L150
 920              	.L153:
 921 001e 23B1     		cbz	r3, .L150
 922 0020 1846     		mov	r0, r3
 923 0022 FFF7FEFF 		bl	uxTaskGetStackHighWaterMark
 924 0026 00E0     		b	.L150
 925              	.L154:
 926 0028 0020     		movs	r0, #0
 927              	.L150:
 928 002a 08BD     		pop	{r3, pc}
 929              	.L157:
 930              		.align	2
 931              	.L156:
 932 002c 00000000 		.word	.LANCHOR0
 934              		.section	.text.osThreadSetPriority,"ax",%progbits
 935              		.align	1
 936              		.global	osThreadSetPriority
 937              		.syntax unified
 938              		.thumb
 939              		.thumb_func
 940              		.fpu fpv4-sp-d16
 942              	osThreadSetPriority:
 943              		@ args = 0, pretend = 0, frame = 0
 944              		@ frame_needed = 0, uses_anonymous_args = 0
 945 0000 08B5     		push	{r3, lr}
 946              		.syntax unified
 947              	@ 209 "Drivers/CMSIS/Include/cmsis_gcc.h" 1
ARM GAS  /tmp/ccG9f0RW.s 			page 17


 948 0002 EFF30583 		MRS r3, ipsr
 949              	@ 0 "" 2
 950              		.thumb
 951              		.syntax unified
 952 0006 93B9     		cbnz	r3, .L162
 953              		.syntax unified
 954              	@ 386 "Drivers/CMSIS/Include/cmsis_gcc.h" 1
 955 0008 EFF31083 		MRS r3, primask
 956              	@ 0 "" 2
 957              		.thumb
 958              		.syntax unified
 959 000c 13B9     		cbnz	r3, .L160
 960              		.syntax unified
 961              	@ 465 "Drivers/CMSIS/Include/cmsis_gcc.h" 1
 962 000e EFF31183 		MRS r3, basepri
 963              	@ 0 "" 2
 964              		.thumb
 965              		.syntax unified
 966 0012 1BB1     		cbz	r3, .L161
 967              	.L160:
 968 0014 0D4B     		ldr	r3, .L168
 969 0016 1B68     		ldr	r3, [r3]
 970 0018 022B     		cmp	r3, #2
 971 001a 0BD0     		beq	.L163
 972              	.L161:
 973 001c 68B1     		cbz	r0, .L164
 974 001e 0029     		cmp	r1, #0
 975 0020 0EDD     		ble	.L165
 976 0022 3829     		cmp	r1, #56
 977 0024 0FDC     		bgt	.L166
 978 0026 FFF7FEFF 		bl	vTaskPrioritySet
 979 002a 0020     		movs	r0, #0
 980              	.L158:
 981 002c 08BD     		pop	{r3, pc}
 982              	.L162:
 983 002e 6FF00500 		mvn	r0, #5
 984 0032 FBE7     		b	.L158
 985              	.L163:
 986 0034 6FF00500 		mvn	r0, #5
 987 0038 F8E7     		b	.L158
 988              	.L164:
 989 003a 6FF00300 		mvn	r0, #3
 990 003e F5E7     		b	.L158
 991              	.L165:
 992 0040 6FF00300 		mvn	r0, #3
 993 0044 F2E7     		b	.L158
 994              	.L166:
 995 0046 6FF00300 		mvn	r0, #3
 996 004a EFE7     		b	.L158
 997              	.L169:
 998              		.align	2
 999              	.L168:
 1000 004c 00000000 		.word	.LANCHOR0
 1002              		.section	.text.osThreadGetPriority,"ax",%progbits
 1003              		.align	1
 1004              		.global	osThreadGetPriority
 1005              		.syntax unified
ARM GAS  /tmp/ccG9f0RW.s 			page 18


 1006              		.thumb
 1007              		.thumb_func
 1008              		.fpu fpv4-sp-d16
 1010              	osThreadGetPriority:
 1011              		@ args = 0, pretend = 0, frame = 0
 1012              		@ frame_needed = 0, uses_anonymous_args = 0
 1013 0000 08B5     		push	{r3, lr}
 1014              		.syntax unified
 1015              	@ 209 "Drivers/CMSIS/Include/cmsis_gcc.h" 1
 1016 0002 EFF30583 		MRS r3, ipsr
 1017              	@ 0 "" 2
 1018              		.thumb
 1019              		.syntax unified
 1020 0006 6BB9     		cbnz	r3, .L174
 1021              		.syntax unified
 1022              	@ 386 "Drivers/CMSIS/Include/cmsis_gcc.h" 1
 1023 0008 EFF31083 		MRS r3, primask
 1024              	@ 0 "" 2
 1025              		.thumb
 1026              		.syntax unified
 1027 000c 13B9     		cbnz	r3, .L172
 1028              		.syntax unified
 1029              	@ 465 "Drivers/CMSIS/Include/cmsis_gcc.h" 1
 1030 000e EFF31183 		MRS r3, basepri
 1031              	@ 0 "" 2
 1032              		.thumb
 1033              		.syntax unified
 1034 0012 1BB1     		cbz	r3, .L173
 1035              	.L172:
 1036 0014 084B     		ldr	r3, .L178
 1037 0016 1B68     		ldr	r3, [r3]
 1038 0018 022B     		cmp	r3, #2
 1039 001a 06D0     		beq	.L175
 1040              	.L173:
 1041 001c 40B1     		cbz	r0, .L176
 1042 001e FFF7FEFF 		bl	uxTaskPriorityGet
 1043              	.L170:
 1044 0022 08BD     		pop	{r3, pc}
 1045              	.L174:
 1046 0024 4FF0FF30 		mov	r0, #-1
 1047 0028 FBE7     		b	.L170
 1048              	.L175:
 1049 002a 4FF0FF30 		mov	r0, #-1
 1050 002e F8E7     		b	.L170
 1051              	.L176:
 1052 0030 4FF0FF30 		mov	r0, #-1
 1053 0034 F5E7     		b	.L170
 1054              	.L179:
 1055 0036 00BF     		.align	2
 1056              	.L178:
 1057 0038 00000000 		.word	.LANCHOR0
 1059              		.section	.text.osThreadYield,"ax",%progbits
 1060              		.align	1
 1061              		.global	osThreadYield
 1062              		.syntax unified
 1063              		.thumb
 1064              		.thumb_func
ARM GAS  /tmp/ccG9f0RW.s 			page 19


 1065              		.fpu fpv4-sp-d16
 1067              	osThreadYield:
 1068              		@ args = 0, pretend = 0, frame = 0
 1069              		@ frame_needed = 0, uses_anonymous_args = 0
 1070              		@ link register save eliminated.
 1071              		.syntax unified
 1072              	@ 209 "Drivers/CMSIS/Include/cmsis_gcc.h" 1
 1073 0000 EFF30583 		MRS r3, ipsr
 1074              	@ 0 "" 2
 1075              		.thumb
 1076              		.syntax unified
 1077 0004 9BB9     		cbnz	r3, .L184
 1078              		.syntax unified
 1079              	@ 386 "Drivers/CMSIS/Include/cmsis_gcc.h" 1
 1080 0006 EFF31083 		MRS r3, primask
 1081              	@ 0 "" 2
 1082              		.thumb
 1083              		.syntax unified
 1084 000a 13B9     		cbnz	r3, .L182
 1085              		.syntax unified
 1086              	@ 465 "Drivers/CMSIS/Include/cmsis_gcc.h" 1
 1087 000c EFF31183 		MRS r3, basepri
 1088              	@ 0 "" 2
 1089              		.thumb
 1090              		.syntax unified
 1091 0010 1BB1     		cbz	r3, .L183
 1092              	.L182:
 1093 0012 0A4B     		ldr	r3, .L186
 1094 0014 1B68     		ldr	r3, [r3]
 1095 0016 022B     		cmp	r3, #2
 1096 0018 0CD0     		beq	.L185
 1097              	.L183:
 1098 001a 094B     		ldr	r3, .L186+4
 1099 001c 4FF08052 		mov	r2, #268435456
 1100 0020 1A60     		str	r2, [r3]
 1101              		.syntax unified
 1102              	@ 564 "Middlewares/Third_Party/FreeRTOS/Source/CMSIS_RTOS_V2/cmsis_os2.c" 1
 1103 0022 BFF34F8F 		dsb
 1104              	@ 0 "" 2
 1105              	@ 564 "Middlewares/Third_Party/FreeRTOS/Source/CMSIS_RTOS_V2/cmsis_os2.c" 1
 1106 0026 BFF36F8F 		isb
 1107              	@ 0 "" 2
 1108              		.thumb
 1109              		.syntax unified
 1110 002a 0020     		movs	r0, #0
 1111 002c 7047     		bx	lr
 1112              	.L184:
 1113 002e 6FF00500 		mvn	r0, #5
 1114 0032 7047     		bx	lr
 1115              	.L185:
 1116 0034 6FF00500 		mvn	r0, #5
 1117 0038 7047     		bx	lr
 1118              	.L187:
 1119 003a 00BF     		.align	2
 1120              	.L186:
 1121 003c 00000000 		.word	.LANCHOR0
 1122 0040 04ED00E0 		.word	-536810236
ARM GAS  /tmp/ccG9f0RW.s 			page 20


 1124              		.section	.text.osThreadSuspend,"ax",%progbits
 1125              		.align	1
 1126              		.global	osThreadSuspend
 1127              		.syntax unified
 1128              		.thumb
 1129              		.thumb_func
 1130              		.fpu fpv4-sp-d16
 1132              	osThreadSuspend:
 1133              		@ args = 0, pretend = 0, frame = 0
 1134              		@ frame_needed = 0, uses_anonymous_args = 0
 1135 0000 08B5     		push	{r3, lr}
 1136              		.syntax unified
 1137              	@ 209 "Drivers/CMSIS/Include/cmsis_gcc.h" 1
 1138 0002 EFF30583 		MRS r3, ipsr
 1139              	@ 0 "" 2
 1140              		.thumb
 1141              		.syntax unified
 1142 0006 73B9     		cbnz	r3, .L192
 1143              		.syntax unified
 1144              	@ 386 "Drivers/CMSIS/Include/cmsis_gcc.h" 1
 1145 0008 EFF31083 		MRS r3, primask
 1146              	@ 0 "" 2
 1147              		.thumb
 1148              		.syntax unified
 1149 000c 13B9     		cbnz	r3, .L190
 1150              		.syntax unified
 1151              	@ 465 "Drivers/CMSIS/Include/cmsis_gcc.h" 1
 1152 000e EFF31183 		MRS r3, basepri
 1153              	@ 0 "" 2
 1154              		.thumb
 1155              		.syntax unified
 1156 0012 1BB1     		cbz	r3, .L191
 1157              	.L190:
 1158 0014 084B     		ldr	r3, .L196
 1159 0016 1B68     		ldr	r3, [r3]
 1160 0018 022B     		cmp	r3, #2
 1161 001a 07D0     		beq	.L193
 1162              	.L191:
 1163 001c 48B1     		cbz	r0, .L194
 1164 001e FFF7FEFF 		bl	vTaskSuspend
 1165 0022 0020     		movs	r0, #0
 1166              	.L188:
 1167 0024 08BD     		pop	{r3, pc}
 1168              	.L192:
 1169 0026 6FF00500 		mvn	r0, #5
 1170 002a FBE7     		b	.L188
 1171              	.L193:
 1172 002c 6FF00500 		mvn	r0, #5
 1173 0030 F8E7     		b	.L188
 1174              	.L194:
 1175 0032 6FF00300 		mvn	r0, #3
 1176 0036 F5E7     		b	.L188
 1177              	.L197:
 1178              		.align	2
 1179              	.L196:
 1180 0038 00000000 		.word	.LANCHOR0
 1182              		.section	.text.osThreadResume,"ax",%progbits
ARM GAS  /tmp/ccG9f0RW.s 			page 21


 1183              		.align	1
 1184              		.global	osThreadResume
 1185              		.syntax unified
 1186              		.thumb
 1187              		.thumb_func
 1188              		.fpu fpv4-sp-d16
 1190              	osThreadResume:
 1191              		@ args = 0, pretend = 0, frame = 0
 1192              		@ frame_needed = 0, uses_anonymous_args = 0
 1193 0000 08B5     		push	{r3, lr}
 1194              		.syntax unified
 1195              	@ 209 "Drivers/CMSIS/Include/cmsis_gcc.h" 1
 1196 0002 EFF30583 		MRS r3, ipsr
 1197              	@ 0 "" 2
 1198              		.thumb
 1199              		.syntax unified
 1200 0006 73B9     		cbnz	r3, .L202
 1201              		.syntax unified
 1202              	@ 386 "Drivers/CMSIS/Include/cmsis_gcc.h" 1
 1203 0008 EFF31083 		MRS r3, primask
 1204              	@ 0 "" 2
 1205              		.thumb
 1206              		.syntax unified
 1207 000c 13B9     		cbnz	r3, .L200
 1208              		.syntax unified
 1209              	@ 465 "Drivers/CMSIS/Include/cmsis_gcc.h" 1
 1210 000e EFF31183 		MRS r3, basepri
 1211              	@ 0 "" 2
 1212              		.thumb
 1213              		.syntax unified
 1214 0012 1BB1     		cbz	r3, .L201
 1215              	.L200:
 1216 0014 084B     		ldr	r3, .L206
 1217 0016 1B68     		ldr	r3, [r3]
 1218 0018 022B     		cmp	r3, #2
 1219 001a 07D0     		beq	.L203
 1220              	.L201:
 1221 001c 48B1     		cbz	r0, .L204
 1222 001e FFF7FEFF 		bl	vTaskResume
 1223 0022 0020     		movs	r0, #0
 1224              	.L198:
 1225 0024 08BD     		pop	{r3, pc}
 1226              	.L202:
 1227 0026 6FF00500 		mvn	r0, #5
 1228 002a FBE7     		b	.L198
 1229              	.L203:
 1230 002c 6FF00500 		mvn	r0, #5
 1231 0030 F8E7     		b	.L198
 1232              	.L204:
 1233 0032 6FF00300 		mvn	r0, #3
 1234 0036 F5E7     		b	.L198
 1235              	.L207:
 1236              		.align	2
 1237              	.L206:
 1238 0038 00000000 		.word	.LANCHOR0
 1240              		.section	.text.osThreadExit,"ax",%progbits
 1241              		.align	1
ARM GAS  /tmp/ccG9f0RW.s 			page 22


 1242              		.global	osThreadExit
 1243              		.syntax unified
 1244              		.thumb
 1245              		.thumb_func
 1246              		.fpu fpv4-sp-d16
 1248              	osThreadExit:
 1249              		@ Volatile: function does not return.
 1250              		@ args = 0, pretend = 0, frame = 0
 1251              		@ frame_needed = 0, uses_anonymous_args = 0
 1252 0000 08B5     		push	{r3, lr}
 1253 0002 0020     		movs	r0, #0
 1254 0004 FFF7FEFF 		bl	vTaskDelete
 1255              	.L209:
 1256 0008 FEE7     		b	.L209
 1258              		.section	.text.osThreadTerminate,"ax",%progbits
 1259              		.align	1
 1260              		.global	osThreadTerminate
 1261              		.syntax unified
 1262              		.thumb
 1263              		.thumb_func
 1264              		.fpu fpv4-sp-d16
 1266              	osThreadTerminate:
 1267              		@ args = 0, pretend = 0, frame = 0
 1268              		@ frame_needed = 0, uses_anonymous_args = 0
 1269              		.syntax unified
 1270              	@ 209 "Drivers/CMSIS/Include/cmsis_gcc.h" 1
 1271 0000 EFF30583 		MRS r3, ipsr
 1272              	@ 0 "" 2
 1273              		.thumb
 1274              		.syntax unified
 1275 0004 ABB9     		cbnz	r3, .L215
 1276              		.syntax unified
 1277              	@ 386 "Drivers/CMSIS/Include/cmsis_gcc.h" 1
 1278 0006 EFF31083 		MRS r3, primask
 1279              	@ 0 "" 2
 1280              		.thumb
 1281              		.syntax unified
 1282 000a 13B9     		cbnz	r3, .L213
 1283              		.syntax unified
 1284              	@ 465 "Drivers/CMSIS/Include/cmsis_gcc.h" 1
 1285 000c EFF31183 		MRS r3, basepri
 1286              	@ 0 "" 2
 1287              		.thumb
 1288              		.syntax unified
 1289 0010 1BB1     		cbz	r3, .L214
 1290              	.L213:
 1291 0012 0E4B     		ldr	r3, .L223
 1292 0014 1B68     		ldr	r3, [r3]
 1293 0016 022B     		cmp	r3, #2
 1294 0018 0ED0     		beq	.L216
 1295              	.L214:
 1296 001a 80B1     		cbz	r0, .L217
 1297 001c 10B5     		push	{r4, lr}
 1298 001e 0446     		mov	r4, r0
 1299 0020 FFF7FEFF 		bl	eTaskGetState
 1300 0024 0428     		cmp	r0, #4
 1301 0026 0DD0     		beq	.L218
ARM GAS  /tmp/ccG9f0RW.s 			page 23


 1302 0028 2046     		mov	r0, r4
 1303 002a FFF7FEFF 		bl	vTaskDelete
 1304 002e 0020     		movs	r0, #0
 1305              	.L211:
 1306 0030 10BD     		pop	{r4, pc}
 1307              	.L215:
 1308 0032 6FF00500 		mvn	r0, #5
 1309 0036 7047     		bx	lr
 1310              	.L216:
 1311 0038 6FF00500 		mvn	r0, #5
 1312 003c 7047     		bx	lr
 1313              	.L217:
 1314 003e 6FF00300 		mvn	r0, #3
 1315 0042 7047     		bx	lr
 1316              	.L218:
 1317 0044 6FF00200 		mvn	r0, #2
 1318 0048 F2E7     		b	.L211
 1319              	.L224:
 1320 004a 00BF     		.align	2
 1321              	.L223:
 1322 004c 00000000 		.word	.LANCHOR0
 1324              		.section	.text.osThreadGetCount,"ax",%progbits
 1325              		.align	1
 1326              		.global	osThreadGetCount
 1327              		.syntax unified
 1328              		.thumb
 1329              		.thumb_func
 1330              		.fpu fpv4-sp-d16
 1332              	osThreadGetCount:
 1333              		@ args = 0, pretend = 0, frame = 0
 1334              		@ frame_needed = 0, uses_anonymous_args = 0
 1335              		.syntax unified
 1336              	@ 209 "Drivers/CMSIS/Include/cmsis_gcc.h" 1
 1337 0000 EFF30580 		MRS r0, ipsr
 1338              	@ 0 "" 2
 1339              		.thumb
 1340              		.syntax unified
 1341 0004 68B9     		cbnz	r0, .L229
 1342 0006 08B5     		push	{r3, lr}
 1343              		.syntax unified
 1344              	@ 386 "Drivers/CMSIS/Include/cmsis_gcc.h" 1
 1345 0008 EFF31083 		MRS r3, primask
 1346              	@ 0 "" 2
 1347              		.thumb
 1348              		.syntax unified
 1349 000c 13B9     		cbnz	r3, .L227
 1350              		.syntax unified
 1351              	@ 465 "Drivers/CMSIS/Include/cmsis_gcc.h" 1
 1352 000e EFF31183 		MRS r3, basepri
 1353              	@ 0 "" 2
 1354              		.thumb
 1355              		.syntax unified
 1356 0012 1BB1     		cbz	r3, .L228
 1357              	.L227:
 1358 0014 044B     		ldr	r3, .L234
 1359 0016 1B68     		ldr	r3, [r3]
 1360 0018 022B     		cmp	r3, #2
ARM GAS  /tmp/ccG9f0RW.s 			page 24


 1361 001a 01D0     		beq	.L225
 1362              	.L228:
 1363 001c FFF7FEFF 		bl	uxTaskGetNumberOfTasks
 1364              	.L225:
 1365 0020 08BD     		pop	{r3, pc}
 1366              	.L229:
 1367 0022 0020     		movs	r0, #0
 1368 0024 7047     		bx	lr
 1369              	.L235:
 1370 0026 00BF     		.align	2
 1371              	.L234:
 1372 0028 00000000 		.word	.LANCHOR0
 1374              		.section	.text.osThreadEnumerate,"ax",%progbits
 1375              		.align	1
 1376              		.global	osThreadEnumerate
 1377              		.syntax unified
 1378              		.thumb
 1379              		.thumb_func
 1380              		.fpu fpv4-sp-d16
 1382              	osThreadEnumerate:
 1383              		@ args = 0, pretend = 0, frame = 0
 1384              		@ frame_needed = 0, uses_anonymous_args = 0
 1385 0000 2DE9F041 		push	{r4, r5, r6, r7, r8, lr}
 1386              		.syntax unified
 1387              	@ 209 "Drivers/CMSIS/Include/cmsis_gcc.h" 1
 1388 0004 EFF30584 		MRS r4, ipsr
 1389              	@ 0 "" 2
 1390              		.thumb
 1391              		.syntax unified
 1392 0008 9CBB     		cbnz	r4, .L243
 1393              		.syntax unified
 1394              	@ 386 "Drivers/CMSIS/Include/cmsis_gcc.h" 1
 1395 000a EFF31083 		MRS r3, primask
 1396              	@ 0 "" 2
 1397              		.thumb
 1398              		.syntax unified
 1399 000e 13B9     		cbnz	r3, .L238
 1400              		.syntax unified
 1401              	@ 465 "Drivers/CMSIS/Include/cmsis_gcc.h" 1
 1402 0010 EFF31183 		MRS r3, basepri
 1403              	@ 0 "" 2
 1404              		.thumb
 1405              		.syntax unified
 1406 0014 1BB1     		cbz	r3, .L239
 1407              	.L238:
 1408 0016 194B     		ldr	r3, .L248
 1409 0018 1B68     		ldr	r3, [r3]
 1410 001a 022B     		cmp	r3, #2
 1411 001c 2AD0     		beq	.L236
 1412              	.L239:
 1413 001e 48B3     		cbz	r0, .L236
 1414 0020 09B9     		cbnz	r1, .L247
 1415 0022 0C46     		mov	r4, r1
 1416 0024 26E0     		b	.L236
 1417              	.L247:
 1418 0026 0D46     		mov	r5, r1
 1419 0028 0646     		mov	r6, r0
ARM GAS  /tmp/ccG9f0RW.s 			page 25


 1420 002a FFF7FEFF 		bl	vTaskSuspendAll
 1421 002e FFF7FEFF 		bl	uxTaskGetNumberOfTasks
 1422 0032 8046     		mov	r8, r0
 1423 0034 00EBC003 		add	r3, r0, r0, lsl #3
 1424 0038 9800     		lsls	r0, r3, #2
 1425 003a FFF7FEFF 		bl	pvPortMalloc
 1426 003e 0746     		mov	r7, r0
 1427 0040 80B1     		cbz	r0, .L245
 1428 0042 0022     		movs	r2, #0
 1429 0044 4146     		mov	r1, r8
 1430 0046 FFF7FEFF 		bl	uxTaskGetSystemState
 1431 004a 06E0     		b	.L241
 1432              	.L242:
 1433 004c 04EBC402 		add	r2, r4, r4, lsl #3
 1434 0050 9300     		lsls	r3, r2, #2
 1435 0052 FB58     		ldr	r3, [r7, r3]
 1436 0054 46F82430 		str	r3, [r6, r4, lsl #2]
 1437 0058 0134     		adds	r4, r4, #1
 1438              	.L241:
 1439 005a 8442     		cmp	r4, r0
 1440 005c 03D2     		bcs	.L240
 1441 005e AC42     		cmp	r4, r5
 1442 0060 F4D3     		bcc	.L242
 1443 0062 00E0     		b	.L240
 1444              	.L245:
 1445 0064 4446     		mov	r4, r8
 1446              	.L240:
 1447 0066 FFF7FEFF 		bl	xTaskResumeAll
 1448 006a 3846     		mov	r0, r7
 1449 006c FFF7FEFF 		bl	vPortFree
 1450 0070 00E0     		b	.L236
 1451              	.L243:
 1452 0072 0024     		movs	r4, #0
 1453              	.L236:
 1454 0074 2046     		mov	r0, r4
 1455 0076 BDE8F081 		pop	{r4, r5, r6, r7, r8, pc}
 1456              	.L249:
 1457 007a 00BF     		.align	2
 1458              	.L248:
 1459 007c 00000000 		.word	.LANCHOR0
 1461              		.section	.text.osThreadFlagsSet,"ax",%progbits
 1462              		.align	1
 1463              		.global	osThreadFlagsSet
 1464              		.syntax unified
 1465              		.thumb
 1466              		.thumb_func
 1467              		.fpu fpv4-sp-d16
 1469              	osThreadFlagsSet:
 1470              		@ args = 0, pretend = 0, frame = 8
 1471              		@ frame_needed = 0, uses_anonymous_args = 0
 1472 0000 30B5     		push	{r4, r5, lr}
 1473 0002 85B0     		sub	sp, sp, #20
 1474 0004 F0B1     		cbz	r0, .L251
 1475 0006 0446     		mov	r4, r0
 1476 0008 0029     		cmp	r1, #0
 1477 000a 1BDB     		blt	.L251
 1478 000c 4FF0FF33 		mov	r3, #-1
ARM GAS  /tmp/ccG9f0RW.s 			page 26


 1479 0010 0393     		str	r3, [sp, #12]
 1480              		.syntax unified
 1481              	@ 209 "Drivers/CMSIS/Include/cmsis_gcc.h" 1
 1482 0012 EFF30583 		MRS r3, ipsr
 1483              	@ 0 "" 2
 1484              		.thumb
 1485              		.syntax unified
 1486 0016 DBB9     		cbnz	r3, .L254
 1487              		.syntax unified
 1488              	@ 386 "Drivers/CMSIS/Include/cmsis_gcc.h" 1
 1489 0018 EFF31083 		MRS r3, primask
 1490              	@ 0 "" 2
 1491              		.thumb
 1492              		.syntax unified
 1493 001c 13B9     		cbnz	r3, .L255
 1494              		.syntax unified
 1495              	@ 465 "Drivers/CMSIS/Include/cmsis_gcc.h" 1
 1496 001e EFF31183 		MRS r3, basepri
 1497              	@ 0 "" 2
 1498              		.thumb
 1499              		.syntax unified
 1500 0022 1BB1     		cbz	r3, .L256
 1501              	.L255:
 1502 0024 184B     		ldr	r3, .L258
 1503 0026 1B68     		ldr	r3, [r3]
 1504 0028 022B     		cmp	r3, #2
 1505 002a 11D0     		beq	.L254
 1506              	.L256:
 1507 002c 0023     		movs	r3, #0
 1508 002e 0122     		movs	r2, #1
 1509 0030 2046     		mov	r0, r4
 1510 0032 FFF7FEFF 		bl	xTaskGenericNotify
 1511 0036 03AB     		add	r3, sp, #12
 1512 0038 0022     		movs	r2, #0
 1513 003a 1146     		mov	r1, r2
 1514 003c 2046     		mov	r0, r4
 1515 003e FFF7FEFF 		bl	xTaskGenericNotify
 1516 0042 02E0     		b	.L253
 1517              	.L251:
 1518 0044 6FF00303 		mvn	r3, #3
 1519 0048 0393     		str	r3, [sp, #12]
 1520              	.L253:
 1521 004a 0398     		ldr	r0, [sp, #12]
 1522 004c 05B0     		add	sp, sp, #20
 1523              		@ sp needed
 1524 004e 30BD     		pop	{r4, r5, pc}
 1525              	.L254:
 1526 0050 0025     		movs	r5, #0
 1527 0052 0295     		str	r5, [sp, #8]
 1528 0054 02AB     		add	r3, sp, #8
 1529 0056 0093     		str	r3, [sp]
 1530 0058 2B46     		mov	r3, r5
 1531 005a 0122     		movs	r2, #1
 1532 005c 2046     		mov	r0, r4
 1533 005e FFF7FEFF 		bl	xTaskGenericNotifyFromISR
 1534 0062 0095     		str	r5, [sp]
 1535 0064 03AB     		add	r3, sp, #12
ARM GAS  /tmp/ccG9f0RW.s 			page 27


 1536 0066 2A46     		mov	r2, r5
 1537 0068 2946     		mov	r1, r5
 1538 006a 2046     		mov	r0, r4
 1539 006c FFF7FEFF 		bl	xTaskGenericNotifyFromISR
 1540 0070 029B     		ldr	r3, [sp, #8]
 1541 0072 002B     		cmp	r3, #0
 1542 0074 E9D0     		beq	.L253
 1543 0076 054B     		ldr	r3, .L258+4
 1544 0078 4FF08052 		mov	r2, #268435456
 1545 007c 1A60     		str	r2, [r3]
 1546              		.syntax unified
 1547              	@ 699 "Middlewares/Third_Party/FreeRTOS/Source/CMSIS_RTOS_V2/cmsis_os2.c" 1
 1548 007e BFF34F8F 		dsb
 1549              	@ 0 "" 2
 1550              	@ 699 "Middlewares/Third_Party/FreeRTOS/Source/CMSIS_RTOS_V2/cmsis_os2.c" 1
 1551 0082 BFF36F8F 		isb
 1552              	@ 0 "" 2
 1553              		.thumb
 1554              		.syntax unified
 1555 0086 E0E7     		b	.L253
 1556              	.L259:
 1557              		.align	2
 1558              	.L258:
 1559 0088 00000000 		.word	.LANCHOR0
 1560 008c 04ED00E0 		.word	-536810236
 1562              		.section	.text.osThreadFlagsClear,"ax",%progbits
 1563              		.align	1
 1564              		.global	osThreadFlagsClear
 1565              		.syntax unified
 1566              		.thumb
 1567              		.thumb_func
 1568              		.fpu fpv4-sp-d16
 1570              	osThreadFlagsClear:
 1571              		@ args = 0, pretend = 0, frame = 8
 1572              		@ frame_needed = 0, uses_anonymous_args = 0
 1573 0000 70B5     		push	{r4, r5, r6, lr}
 1574 0002 82B0     		sub	sp, sp, #8
 1575              		.syntax unified
 1576              	@ 209 "Drivers/CMSIS/Include/cmsis_gcc.h" 1
 1577 0004 EFF30583 		MRS r3, ipsr
 1578              	@ 0 "" 2
 1579              		.thumb
 1580              		.syntax unified
 1581 0008 3BBB     		cbnz	r3, .L264
 1582              		.syntax unified
 1583              	@ 386 "Drivers/CMSIS/Include/cmsis_gcc.h" 1
 1584 000a EFF31083 		MRS r3, primask
 1585              	@ 0 "" 2
 1586              		.thumb
 1587              		.syntax unified
 1588 000e 13B9     		cbnz	r3, .L262
 1589              		.syntax unified
 1590              	@ 465 "Drivers/CMSIS/Include/cmsis_gcc.h" 1
 1591 0010 EFF31183 		MRS r3, basepri
 1592              	@ 0 "" 2
 1593              		.thumb
 1594              		.syntax unified
ARM GAS  /tmp/ccG9f0RW.s 			page 28


 1595 0014 1BB1     		cbz	r3, .L263
 1596              	.L262:
 1597 0016 164B     		ldr	r3, .L271
 1598 0018 1B68     		ldr	r3, [r3]
 1599 001a 022B     		cmp	r3, #2
 1600 001c 22D0     		beq	.L265
 1601              	.L263:
 1602 001e 0028     		cmp	r0, #0
 1603 0020 23DB     		blt	.L266
 1604 0022 0446     		mov	r4, r0
 1605 0024 FFF7FEFF 		bl	xTaskGetCurrentTaskHandle
 1606 0028 0646     		mov	r6, r0
 1607 002a 01AB     		add	r3, sp, #4
 1608 002c 0022     		movs	r2, #0
 1609 002e 1146     		mov	r1, r2
 1610 0030 FFF7FEFF 		bl	xTaskGenericNotify
 1611 0034 0128     		cmp	r0, #1
 1612 0036 02D0     		beq	.L270
 1613 0038 4FF0FF35 		mov	r5, #-1
 1614 003c 0FE0     		b	.L260
 1615              	.L270:
 1616 003e 019D     		ldr	r5, [sp, #4]
 1617 0040 25EA0401 		bic	r1, r5, r4
 1618 0044 0191     		str	r1, [sp, #4]
 1619 0046 0023     		movs	r3, #0
 1620 0048 0322     		movs	r2, #3
 1621 004a 3046     		mov	r0, r6
 1622 004c FFF7FEFF 		bl	xTaskGenericNotify
 1623 0050 0128     		cmp	r0, #1
 1624 0052 04D0     		beq	.L260
 1625 0054 4FF0FF35 		mov	r5, #-1
 1626 0058 01E0     		b	.L260
 1627              	.L264:
 1628 005a 6FF00505 		mvn	r5, #5
 1629              	.L260:
 1630 005e 2846     		mov	r0, r5
 1631 0060 02B0     		add	sp, sp, #8
 1632              		@ sp needed
 1633 0062 70BD     		pop	{r4, r5, r6, pc}
 1634              	.L265:
 1635 0064 6FF00505 		mvn	r5, #5
 1636 0068 F9E7     		b	.L260
 1637              	.L266:
 1638 006a 6FF00305 		mvn	r5, #3
 1639 006e F6E7     		b	.L260
 1640              	.L272:
 1641              		.align	2
 1642              	.L271:
 1643 0070 00000000 		.word	.LANCHOR0
 1645              		.section	.text.osThreadFlagsGet,"ax",%progbits
 1646              		.align	1
 1647              		.global	osThreadFlagsGet
 1648              		.syntax unified
 1649              		.thumb
 1650              		.thumb_func
 1651              		.fpu fpv4-sp-d16
 1653              	osThreadFlagsGet:
ARM GAS  /tmp/ccG9f0RW.s 			page 29


 1654              		@ args = 0, pretend = 0, frame = 8
 1655              		@ frame_needed = 0, uses_anonymous_args = 0
 1656 0000 00B5     		push	{lr}
 1657 0002 83B0     		sub	sp, sp, #12
 1658              		.syntax unified
 1659              	@ 209 "Drivers/CMSIS/Include/cmsis_gcc.h" 1
 1660 0004 EFF30583 		MRS r3, ipsr
 1661              	@ 0 "" 2
 1662              		.thumb
 1663              		.syntax unified
 1664 0008 B3B9     		cbnz	r3, .L274
 1665              		.syntax unified
 1666              	@ 386 "Drivers/CMSIS/Include/cmsis_gcc.h" 1
 1667 000a EFF31083 		MRS r3, primask
 1668              	@ 0 "" 2
 1669              		.thumb
 1670              		.syntax unified
 1671 000e 13B9     		cbnz	r3, .L275
 1672              		.syntax unified
 1673              	@ 465 "Drivers/CMSIS/Include/cmsis_gcc.h" 1
 1674 0010 EFF31183 		MRS r3, basepri
 1675              	@ 0 "" 2
 1676              		.thumb
 1677              		.syntax unified
 1678 0014 1BB1     		cbz	r3, .L276
 1679              	.L275:
 1680 0016 0C4B     		ldr	r3, .L279
 1681 0018 1B68     		ldr	r3, [r3]
 1682 001a 022B     		cmp	r3, #2
 1683 001c 0CD0     		beq	.L274
 1684              	.L276:
 1685 001e FFF7FEFF 		bl	xTaskGetCurrentTaskHandle
 1686 0022 01AB     		add	r3, sp, #4
 1687 0024 0022     		movs	r2, #0
 1688 0026 1146     		mov	r1, r2
 1689 0028 FFF7FEFF 		bl	xTaskGenericNotify
 1690 002c 0128     		cmp	r0, #1
 1691 002e 06D0     		beq	.L277
 1692 0030 4FF0FF33 		mov	r3, #-1
 1693 0034 0193     		str	r3, [sp, #4]
 1694 0036 02E0     		b	.L277
 1695              	.L274:
 1696 0038 6FF00503 		mvn	r3, #5
 1697 003c 0193     		str	r3, [sp, #4]
 1698              	.L277:
 1699 003e 0198     		ldr	r0, [sp, #4]
 1700 0040 03B0     		add	sp, sp, #12
 1701              		@ sp needed
 1702 0042 5DF804FB 		ldr	pc, [sp], #4
 1703              	.L280:
 1704 0046 00BF     		.align	2
 1705              	.L279:
 1706 0048 00000000 		.word	.LANCHOR0
 1708              		.section	.text.osThreadFlagsWait,"ax",%progbits
 1709              		.align	1
 1710              		.global	osThreadFlagsWait
 1711              		.syntax unified
ARM GAS  /tmp/ccG9f0RW.s 			page 30


 1712              		.thumb
 1713              		.thumb_func
 1714              		.fpu fpv4-sp-d16
 1716              	osThreadFlagsWait:
 1717              		@ args = 0, pretend = 0, frame = 16
 1718              		@ frame_needed = 0, uses_anonymous_args = 0
 1719 0000 2DE9F04F 		push	{r4, r5, r6, r7, r8, r9, r10, fp, lr}
 1720 0004 85B0     		sub	sp, sp, #20
 1721              		.syntax unified
 1722              	@ 209 "Drivers/CMSIS/Include/cmsis_gcc.h" 1
 1723 0006 EFF3058B 		MRS fp, ipsr
 1724              	@ 0 "" 2
 1725              		.thumb
 1726              		.syntax unified
 1727 000a BBF1000F 		cmp	fp, #0
 1728 000e 4BD1     		bne	.L291
 1729              		.syntax unified
 1730              	@ 386 "Drivers/CMSIS/Include/cmsis_gcc.h" 1
 1731 0010 EFF31083 		MRS r3, primask
 1732              	@ 0 "" 2
 1733              		.thumb
 1734              		.syntax unified
 1735 0014 13B9     		cbnz	r3, .L283
 1736              		.syntax unified
 1737              	@ 465 "Drivers/CMSIS/Include/cmsis_gcc.h" 1
 1738 0016 EFF31183 		MRS r3, basepri
 1739              	@ 0 "" 2
 1740              		.thumb
 1741              		.syntax unified
 1742 001a 1BB1     		cbz	r3, .L284
 1743              	.L283:
 1744 001c 2A4B     		ldr	r3, .L302
 1745 001e 1B68     		ldr	r3, [r3]
 1746 0020 022B     		cmp	r3, #2
 1747 0022 47D0     		beq	.L292
 1748              	.L284:
 1749 0024 0028     		cmp	r0, #0
 1750 0026 48DB     		blt	.L293
 1751 0028 11F0020F 		tst	r1, #2
 1752 002c 0AD0     		beq	.L294
 1753 002e CDF804B0 		str	fp, [sp, #4]
 1754              	.L285:
 1755 0032 1746     		mov	r7, r2
 1756 0034 8946     		mov	r9, r1
 1757 0036 8046     		mov	r8, r0
 1758 0038 FFF7FEFF 		bl	xTaskGetTickCount
 1759 003c 8246     		mov	r10, r0
 1760 003e 3E46     		mov	r6, r7
 1761 0040 5D46     		mov	r5, fp
 1762 0042 23E0     		b	.L290
 1763              	.L294:
 1764 0044 0190     		str	r0, [sp, #4]
 1765 0046 F4E7     		b	.L285
 1766              	.L301:
 1767 0048 05EA0805 		and	r5, r5, r8
 1768 004c 039B     		ldr	r3, [sp, #12]
 1769 004e 1D43     		orrs	r5, r5, r3
ARM GAS  /tmp/ccG9f0RW.s 			page 31


 1770 0050 19F0010F 		tst	r9, #1
 1771 0054 0DD0     		beq	.L287
 1772 0056 38EA0503 		bics	r3, r8, r5
 1773 005a 27D0     		beq	.L281
 1774 005c 87B3     		cbz	r7, .L300
 1775              	.L288:
 1776 005e FFF7FEFF 		bl	xTaskGetTickCount
 1777 0062 A0EB0A03 		sub	r3, r0, r10
 1778 0066 9E42     		cmp	r6, r3
 1779 0068 0BD3     		bcc	.L297
 1780 006a AAEB0000 		sub	r0, r10, r0
 1781 006e 0644     		add	r6, r6, r0
 1782 0070 0BE0     		b	.L289
 1783              	.L287:
 1784 0072 18EA050F 		tst	r8, r5
 1785 0076 19D1     		bne	.L281
 1786 0078 002F     		cmp	r7, #0
 1787 007a F0D1     		bne	.L288
 1788 007c 6FF00205 		mvn	r5, #2
 1789 0080 14E0     		b	.L281
 1790              	.L297:
 1791 0082 5E46     		mov	r6, fp
 1792 0084 01E0     		b	.L289
 1793              	.L298:
 1794 0086 6FF00105 		mvn	r5, #1
 1795              	.L289:
 1796 008a 7CB1     		cbz	r4, .L281
 1797              	.L290:
 1798 008c 3346     		mov	r3, r6
 1799 008e 03AA     		add	r2, sp, #12
 1800 0090 0199     		ldr	r1, [sp, #4]
 1801 0092 0020     		movs	r0, #0
 1802 0094 FFF7FEFF 		bl	xTaskNotifyWait
 1803 0098 0446     		mov	r4, r0
 1804 009a 0128     		cmp	r0, #1
 1805 009c D4D0     		beq	.L301
 1806 009e 002F     		cmp	r7, #0
 1807 00a0 F1D1     		bne	.L298
 1808 00a2 6FF00205 		mvn	r5, #2
 1809 00a6 F0E7     		b	.L289
 1810              	.L291:
 1811 00a8 6FF00505 		mvn	r5, #5
 1812              	.L281:
 1813 00ac 2846     		mov	r0, r5
 1814 00ae 05B0     		add	sp, sp, #20
 1815              		@ sp needed
 1816 00b0 BDE8F08F 		pop	{r4, r5, r6, r7, r8, r9, r10, fp, pc}
 1817              	.L292:
 1818 00b4 6FF00505 		mvn	r5, #5
 1819 00b8 F8E7     		b	.L281
 1820              	.L293:
 1821 00ba 6FF00305 		mvn	r5, #3
 1822 00be F5E7     		b	.L281
 1823              	.L300:
 1824 00c0 6FF00205 		mvn	r5, #2
 1825 00c4 F2E7     		b	.L281
 1826              	.L303:
ARM GAS  /tmp/ccG9f0RW.s 			page 32


 1827 00c6 00BF     		.align	2
 1828              	.L302:
 1829 00c8 00000000 		.word	.LANCHOR0
 1831              		.section	.text.osDelay,"ax",%progbits
 1832              		.align	1
 1833              		.global	osDelay
 1834              		.syntax unified
 1835              		.thumb
 1836              		.thumb_func
 1837              		.fpu fpv4-sp-d16
 1839              	osDelay:
 1840              		@ args = 0, pretend = 0, frame = 0
 1841              		@ frame_needed = 0, uses_anonymous_args = 0
 1842 0000 08B5     		push	{r3, lr}
 1843              		.syntax unified
 1844              	@ 209 "Drivers/CMSIS/Include/cmsis_gcc.h" 1
 1845 0002 EFF30583 		MRS r3, ipsr
 1846              	@ 0 "" 2
 1847              		.thumb
 1848              		.syntax unified
 1849 0006 83B9     		cbnz	r3, .L308
 1850              		.syntax unified
 1851              	@ 386 "Drivers/CMSIS/Include/cmsis_gcc.h" 1
 1852 0008 EFF31083 		MRS r3, primask
 1853              	@ 0 "" 2
 1854              		.thumb
 1855              		.syntax unified
 1856 000c 13B9     		cbnz	r3, .L306
 1857              		.syntax unified
 1858              	@ 465 "Drivers/CMSIS/Include/cmsis_gcc.h" 1
 1859 000e EFF31183 		MRS r3, basepri
 1860              	@ 0 "" 2
 1861              		.thumb
 1862              		.syntax unified
 1863 0012 1BB1     		cbz	r3, .L307
 1864              	.L306:
 1865 0014 084B     		ldr	r3, .L313
 1866 0016 1B68     		ldr	r3, [r3]
 1867 0018 022B     		cmp	r3, #2
 1868 001a 09D0     		beq	.L309
 1869              	.L307:
 1870 001c 08B9     		cbnz	r0, .L312
 1871 001e 0020     		movs	r0, #0
 1872              	.L304:
 1873 0020 08BD     		pop	{r3, pc}
 1874              	.L312:
 1875 0022 FFF7FEFF 		bl	vTaskDelay
 1876 0026 0020     		movs	r0, #0
 1877 0028 FAE7     		b	.L304
 1878              	.L308:
 1879 002a 6FF00500 		mvn	r0, #5
 1880 002e F7E7     		b	.L304
 1881              	.L309:
 1882 0030 6FF00500 		mvn	r0, #5
 1883 0034 F4E7     		b	.L304
 1884              	.L314:
 1885 0036 00BF     		.align	2
ARM GAS  /tmp/ccG9f0RW.s 			page 33


 1886              	.L313:
 1887 0038 00000000 		.word	.LANCHOR0
 1889              		.section	.text.osDelayUntil,"ax",%progbits
 1890              		.align	1
 1891              		.global	osDelayUntil
 1892              		.syntax unified
 1893              		.thumb
 1894              		.thumb_func
 1895              		.fpu fpv4-sp-d16
 1897              	osDelayUntil:
 1898              		@ args = 0, pretend = 0, frame = 8
 1899              		@ frame_needed = 0, uses_anonymous_args = 0
 1900              		.syntax unified
 1901              	@ 209 "Drivers/CMSIS/Include/cmsis_gcc.h" 1
 1902 0000 EFF30583 		MRS r3, ipsr
 1903              	@ 0 "" 2
 1904              		.thumb
 1905              		.syntax unified
 1906 0004 C3B9     		cbnz	r3, .L319
 1907              		.syntax unified
 1908              	@ 386 "Drivers/CMSIS/Include/cmsis_gcc.h" 1
 1909 0006 EFF31083 		MRS r3, primask
 1910              	@ 0 "" 2
 1911              		.thumb
 1912              		.syntax unified
 1913 000a 13B9     		cbnz	r3, .L317
 1914              		.syntax unified
 1915              	@ 465 "Drivers/CMSIS/Include/cmsis_gcc.h" 1
 1916 000c EFF31183 		MRS r3, basepri
 1917              	@ 0 "" 2
 1918              		.thumb
 1919              		.syntax unified
 1920 0010 1BB1     		cbz	r3, .L318
 1921              	.L317:
 1922 0012 0E4B     		ldr	r3, .L325
 1923 0014 1B68     		ldr	r3, [r3]
 1924 0016 022B     		cmp	r3, #2
 1925 0018 11D0     		beq	.L320
 1926              	.L318:
 1927 001a 10B5     		push	{r4, lr}
 1928 001c 82B0     		sub	sp, sp, #8
 1929 001e 0446     		mov	r4, r0
 1930 0020 FFF7FEFF 		bl	xTaskGetTickCount
 1931 0024 0190     		str	r0, [sp, #4]
 1932 0026 211A     		subs	r1, r4, r0
 1933 0028 0029     		cmp	r1, #0
 1934 002a 0BDD     		ble	.L321
 1935 002c 01A8     		add	r0, sp, #4
 1936 002e FFF7FEFF 		bl	vTaskDelayUntil
 1937 0032 0020     		movs	r0, #0
 1938              	.L315:
 1939 0034 02B0     		add	sp, sp, #8
 1940              		@ sp needed
 1941 0036 10BD     		pop	{r4, pc}
 1942              	.L319:
 1943 0038 6FF00500 		mvn	r0, #5
 1944 003c 7047     		bx	lr
ARM GAS  /tmp/ccG9f0RW.s 			page 34


 1945              	.L320:
 1946 003e 6FF00500 		mvn	r0, #5
 1947 0042 7047     		bx	lr
 1948              	.L321:
 1949 0044 6FF00300 		mvn	r0, #3
 1950 0048 F4E7     		b	.L315
 1951              	.L326:
 1952 004a 00BF     		.align	2
 1953              	.L325:
 1954 004c 00000000 		.word	.LANCHOR0
 1956              		.section	.text.osTimerNew,"ax",%progbits
 1957              		.align	1
 1958              		.global	osTimerNew
 1959              		.syntax unified
 1960              		.thumb
 1961              		.thumb_func
 1962              		.fpu fpv4-sp-d16
 1964              	osTimerNew:
 1965              		@ args = 0, pretend = 0, frame = 0
 1966              		@ frame_needed = 0, uses_anonymous_args = 0
 1967 0000 2DE9F041 		push	{r4, r5, r6, r7, r8, lr}
 1968 0004 82B0     		sub	sp, sp, #8
 1969              		.syntax unified
 1970              	@ 209 "Drivers/CMSIS/Include/cmsis_gcc.h" 1
 1971 0006 EFF30586 		MRS r6, ipsr
 1972              	@ 0 "" 2
 1973              		.thumb
 1974              		.syntax unified
 1975 000a 002E     		cmp	r6, #0
 1976 000c 3FD1     		bne	.L335
 1977              		.syntax unified
 1978              	@ 386 "Drivers/CMSIS/Include/cmsis_gcc.h" 1
 1979 000e EFF31084 		MRS r4, primask
 1980              	@ 0 "" 2
 1981              		.thumb
 1982              		.syntax unified
 1983 0012 14B9     		cbnz	r4, .L329
 1984              		.syntax unified
 1985              	@ 465 "Drivers/CMSIS/Include/cmsis_gcc.h" 1
 1986 0014 EFF31184 		MRS r4, basepri
 1987              	@ 0 "" 2
 1988              		.thumb
 1989              		.syntax unified
 1990 0018 1CB1     		cbz	r4, .L330
 1991              	.L329:
 1992 001a 224C     		ldr	r4, .L345
 1993 001c 2468     		ldr	r4, [r4]
 1994 001e 022C     		cmp	r4, #2
 1995 0020 3AD0     		beq	.L336
 1996              	.L330:
 1997 0022 0028     		cmp	r0, #0
 1998 0024 3AD0     		beq	.L337
 1999 0026 1C46     		mov	r4, r3
 2000 0028 9046     		mov	r8, r2
 2001 002a 0F46     		mov	r7, r1
 2002 002c 0546     		mov	r5, r0
 2003 002e 0820     		movs	r0, #8
ARM GAS  /tmp/ccG9f0RW.s 			page 35


 2004 0030 FFF7FEFF 		bl	pvPortMalloc
 2005 0034 0346     		mov	r3, r0
 2006 0036 58B3     		cbz	r0, .L327
 2007 0038 0560     		str	r5, [r0]
 2008 003a C0F80480 		str	r8, [r0, #4]
 2009 003e 07B1     		cbz	r7, .L331
 2010 0040 0126     		movs	r6, #1
 2011              	.L331:
 2012 0042 FCB1     		cbz	r4, .L339
 2013 0044 2068     		ldr	r0, [r4]
 2014 0046 A268     		ldr	r2, [r4, #8]
 2015 0048 12B1     		cbz	r2, .L333
 2016 004a E168     		ldr	r1, [r4, #12]
 2017 004c 2B29     		cmp	r1, #43
 2018 004e 10D8     		bhi	.L334
 2019              	.L333:
 2020 0050 52B1     		cbz	r2, .L344
 2021 0052 4FF0FF32 		mov	r2, #-1
 2022              	.L332:
 2023 0056 1ABB     		cbnz	r2, .L342
 2024 0058 134A     		ldr	r2, .L345+4
 2025 005a 0092     		str	r2, [sp]
 2026 005c 3246     		mov	r2, r6
 2027 005e 0121     		movs	r1, #1
 2028 0060 FFF7FEFF 		bl	xTimerCreate
 2029 0064 0346     		mov	r3, r0
 2030 0066 13E0     		b	.L327
 2031              	.L344:
 2032 0068 E268     		ldr	r2, [r4, #12]
 2033 006a 72B1     		cbz	r2, .L341
 2034 006c 4FF0FF32 		mov	r2, #-1
 2035 0070 F1E7     		b	.L332
 2036              	.L334:
 2037 0072 0192     		str	r2, [sp, #4]
 2038 0074 0C4A     		ldr	r2, .L345+4
 2039 0076 0092     		str	r2, [sp]
 2040 0078 3246     		mov	r2, r6
 2041 007a 0121     		movs	r1, #1
 2042 007c FFF7FEFF 		bl	xTimerCreateStatic
 2043 0080 0346     		mov	r3, r0
 2044 0082 05E0     		b	.L327
 2045              	.L339:
 2046 0084 2046     		mov	r0, r4
 2047 0086 0022     		movs	r2, #0
 2048 0088 E5E7     		b	.L332
 2049              	.L341:
 2050 008a 0022     		movs	r2, #0
 2051 008c E3E7     		b	.L332
 2052              	.L335:
 2053 008e 0023     		movs	r3, #0
 2054              	.L327:
 2055 0090 1846     		mov	r0, r3
 2056 0092 02B0     		add	sp, sp, #8
 2057              		@ sp needed
 2058 0094 BDE8F081 		pop	{r4, r5, r6, r7, r8, pc}
 2059              	.L336:
 2060 0098 0023     		movs	r3, #0
ARM GAS  /tmp/ccG9f0RW.s 			page 36


 2061 009a F9E7     		b	.L327
 2062              	.L337:
 2063 009c 0023     		movs	r3, #0
 2064 009e F7E7     		b	.L327
 2065              	.L342:
 2066 00a0 0023     		movs	r3, #0
 2067 00a2 F5E7     		b	.L327
 2068              	.L346:
 2069              		.align	2
 2070              	.L345:
 2071 00a4 00000000 		.word	.LANCHOR0
 2072 00a8 00000000 		.word	TimerCallback
 2074              		.section	.text.osTimerGetName,"ax",%progbits
 2075              		.align	1
 2076              		.global	osTimerGetName
 2077              		.syntax unified
 2078              		.thumb
 2079              		.thumb_func
 2080              		.fpu fpv4-sp-d16
 2082              	osTimerGetName:
 2083              		@ args = 0, pretend = 0, frame = 0
 2084              		@ frame_needed = 0, uses_anonymous_args = 0
 2085 0000 08B5     		push	{r3, lr}
 2086              		.syntax unified
 2087              	@ 209 "Drivers/CMSIS/Include/cmsis_gcc.h" 1
 2088 0002 EFF30583 		MRS r3, ipsr
 2089              	@ 0 "" 2
 2090              		.thumb
 2091              		.syntax unified
 2092 0006 6BB9     		cbnz	r3, .L351
 2093              		.syntax unified
 2094              	@ 386 "Drivers/CMSIS/Include/cmsis_gcc.h" 1
 2095 0008 EFF31083 		MRS r3, primask
 2096              	@ 0 "" 2
 2097              		.thumb
 2098              		.syntax unified
 2099 000c 13B9     		cbnz	r3, .L349
 2100              		.syntax unified
 2101              	@ 465 "Drivers/CMSIS/Include/cmsis_gcc.h" 1
 2102 000e EFF31183 		MRS r3, basepri
 2103              	@ 0 "" 2
 2104              		.thumb
 2105              		.syntax unified
 2106 0012 1BB1     		cbz	r3, .L350
 2107              	.L349:
 2108 0014 054B     		ldr	r3, .L355
 2109 0016 1B68     		ldr	r3, [r3]
 2110 0018 022B     		cmp	r3, #2
 2111 001a 05D0     		beq	.L352
 2112              	.L350:
 2113 001c 08B1     		cbz	r0, .L347
 2114 001e FFF7FEFF 		bl	pcTimerGetName
 2115              	.L347:
 2116 0022 08BD     		pop	{r3, pc}
 2117              	.L351:
 2118 0024 0020     		movs	r0, #0
 2119 0026 FCE7     		b	.L347
ARM GAS  /tmp/ccG9f0RW.s 			page 37


 2120              	.L352:
 2121 0028 0020     		movs	r0, #0
 2122 002a FAE7     		b	.L347
 2123              	.L356:
 2124              		.align	2
 2125              	.L355:
 2126 002c 00000000 		.word	.LANCHOR0
 2128              		.section	.text.osTimerStart,"ax",%progbits
 2129              		.align	1
 2130              		.global	osTimerStart
 2131              		.syntax unified
 2132              		.thumb
 2133              		.thumb_func
 2134              		.fpu fpv4-sp-d16
 2136              	osTimerStart:
 2137              		@ args = 0, pretend = 0, frame = 0
 2138              		@ frame_needed = 0, uses_anonymous_args = 0
 2139              		.syntax unified
 2140              	@ 209 "Drivers/CMSIS/Include/cmsis_gcc.h" 1
 2141 0000 EFF30583 		MRS r3, ipsr
 2142              	@ 0 "" 2
 2143              		.thumb
 2144              		.syntax unified
 2145 0004 C3B9     		cbnz	r3, .L361
 2146              		.syntax unified
 2147              	@ 386 "Drivers/CMSIS/Include/cmsis_gcc.h" 1
 2148 0006 EFF31083 		MRS r3, primask
 2149              	@ 0 "" 2
 2150              		.thumb
 2151              		.syntax unified
 2152 000a 13B9     		cbnz	r3, .L359
 2153              		.syntax unified
 2154              	@ 465 "Drivers/CMSIS/Include/cmsis_gcc.h" 1
 2155 000c EFF31183 		MRS r3, basepri
 2156              	@ 0 "" 2
 2157              		.thumb
 2158              		.syntax unified
 2159 0010 1BB1     		cbz	r3, .L360
 2160              	.L359:
 2161 0012 0F4B     		ldr	r3, .L369
 2162 0014 1B68     		ldr	r3, [r3]
 2163 0016 022B     		cmp	r3, #2
 2164 0018 11D0     		beq	.L362
 2165              	.L360:
 2166 001a 98B1     		cbz	r0, .L363
 2167 001c 00B5     		push	{lr}
 2168 001e 83B0     		sub	sp, sp, #12
 2169 0020 0A46     		mov	r2, r1
 2170 0022 0023     		movs	r3, #0
 2171 0024 0093     		str	r3, [sp]
 2172 0026 0421     		movs	r1, #4
 2173 0028 FFF7FEFF 		bl	xTimerGenericCommand
 2174 002c 0128     		cmp	r0, #1
 2175 002e 0CD1     		bne	.L364
 2176 0030 0020     		movs	r0, #0
 2177              	.L357:
 2178 0032 03B0     		add	sp, sp, #12
ARM GAS  /tmp/ccG9f0RW.s 			page 38


 2179              		@ sp needed
 2180 0034 5DF804FB 		ldr	pc, [sp], #4
 2181              	.L361:
 2182 0038 6FF00500 		mvn	r0, #5
 2183 003c 7047     		bx	lr
 2184              	.L362:
 2185 003e 6FF00500 		mvn	r0, #5
 2186 0042 7047     		bx	lr
 2187              	.L363:
 2188 0044 6FF00300 		mvn	r0, #3
 2189 0048 7047     		bx	lr
 2190              	.L364:
 2191 004a 6FF00200 		mvn	r0, #2
 2192 004e F0E7     		b	.L357
 2193              	.L370:
 2194              		.align	2
 2195              	.L369:
 2196 0050 00000000 		.word	.LANCHOR0
 2198              		.section	.text.osTimerStop,"ax",%progbits
 2199              		.align	1
 2200              		.global	osTimerStop
 2201              		.syntax unified
 2202              		.thumb
 2203              		.thumb_func
 2204              		.fpu fpv4-sp-d16
 2206              	osTimerStop:
 2207              		@ args = 0, pretend = 0, frame = 0
 2208              		@ frame_needed = 0, uses_anonymous_args = 0
 2209              		.syntax unified
 2210              	@ 209 "Drivers/CMSIS/Include/cmsis_gcc.h" 1
 2211 0000 EFF30583 		MRS r3, ipsr
 2212              	@ 0 "" 2
 2213              		.thumb
 2214              		.syntax unified
 2215 0004 E3B9     		cbnz	r3, .L375
 2216              		.syntax unified
 2217              	@ 386 "Drivers/CMSIS/Include/cmsis_gcc.h" 1
 2218 0006 EFF31083 		MRS r3, primask
 2219              	@ 0 "" 2
 2220              		.thumb
 2221              		.syntax unified
 2222 000a 13B9     		cbnz	r3, .L373
 2223              		.syntax unified
 2224              	@ 465 "Drivers/CMSIS/Include/cmsis_gcc.h" 1
 2225 000c EFF31183 		MRS r3, basepri
 2226              	@ 0 "" 2
 2227              		.thumb
 2228              		.syntax unified
 2229 0010 1BB1     		cbz	r3, .L374
 2230              	.L373:
 2231 0012 134B     		ldr	r3, .L384
 2232 0014 1B68     		ldr	r3, [r3]
 2233 0016 022B     		cmp	r3, #2
 2234 0018 15D0     		beq	.L376
 2235              	.L374:
 2236 001a B8B1     		cbz	r0, .L377
 2237 001c 10B5     		push	{r4, lr}
ARM GAS  /tmp/ccG9f0RW.s 			page 39


 2238 001e 82B0     		sub	sp, sp, #8
 2239 0020 0446     		mov	r4, r0
 2240 0022 FFF7FEFF 		bl	xTimerIsTimerActive
 2241 0026 A0B1     		cbz	r0, .L378
 2242 0028 0022     		movs	r2, #0
 2243 002a 0092     		str	r2, [sp]
 2244 002c 1346     		mov	r3, r2
 2245 002e 0321     		movs	r1, #3
 2246 0030 2046     		mov	r0, r4
 2247 0032 FFF7FEFF 		bl	xTimerGenericCommand
 2248 0036 0128     		cmp	r0, #1
 2249 0038 0ED1     		bne	.L379
 2250 003a 0020     		movs	r0, #0
 2251              	.L371:
 2252 003c 02B0     		add	sp, sp, #8
 2253              		@ sp needed
 2254 003e 10BD     		pop	{r4, pc}
 2255              	.L375:
 2256 0040 6FF00500 		mvn	r0, #5
 2257 0044 7047     		bx	lr
 2258              	.L376:
 2259 0046 6FF00500 		mvn	r0, #5
 2260 004a 7047     		bx	lr
 2261              	.L377:
 2262 004c 6FF00300 		mvn	r0, #3
 2263 0050 7047     		bx	lr
 2264              	.L378:
 2265 0052 6FF00200 		mvn	r0, #2
 2266 0056 F1E7     		b	.L371
 2267              	.L379:
 2268 0058 4FF0FF30 		mov	r0, #-1
 2269 005c EEE7     		b	.L371
 2270              	.L385:
 2271 005e 00BF     		.align	2
 2272              	.L384:
 2273 0060 00000000 		.word	.LANCHOR0
 2275              		.section	.text.osTimerIsRunning,"ax",%progbits
 2276              		.align	1
 2277              		.global	osTimerIsRunning
 2278              		.syntax unified
 2279              		.thumb
 2280              		.thumb_func
 2281              		.fpu fpv4-sp-d16
 2283              	osTimerIsRunning:
 2284              		@ args = 0, pretend = 0, frame = 0
 2285              		@ frame_needed = 0, uses_anonymous_args = 0
 2286 0000 08B5     		push	{r3, lr}
 2287 0002 0346     		mov	r3, r0
 2288              		.syntax unified
 2289              	@ 209 "Drivers/CMSIS/Include/cmsis_gcc.h" 1
 2290 0004 EFF30580 		MRS r0, ipsr
 2291              	@ 0 "" 2
 2292              		.thumb
 2293              		.syntax unified
 2294 0008 70B9     		cbnz	r0, .L390
 2295              		.syntax unified
 2296              	@ 386 "Drivers/CMSIS/Include/cmsis_gcc.h" 1
ARM GAS  /tmp/ccG9f0RW.s 			page 40


 2297 000a EFF31082 		MRS r2, primask
 2298              	@ 0 "" 2
 2299              		.thumb
 2300              		.syntax unified
 2301 000e 12B9     		cbnz	r2, .L388
 2302              		.syntax unified
 2303              	@ 465 "Drivers/CMSIS/Include/cmsis_gcc.h" 1
 2304 0010 EFF31182 		MRS r2, basepri
 2305              	@ 0 "" 2
 2306              		.thumb
 2307              		.syntax unified
 2308 0014 1AB1     		cbz	r2, .L389
 2309              	.L388:
 2310 0016 054A     		ldr	r2, .L392
 2311 0018 1268     		ldr	r2, [r2]
 2312 001a 022A     		cmp	r2, #2
 2313 001c 05D0     		beq	.L386
 2314              	.L389:
 2315 001e 23B1     		cbz	r3, .L386
 2316 0020 1846     		mov	r0, r3
 2317 0022 FFF7FEFF 		bl	xTimerIsTimerActive
 2318 0026 00E0     		b	.L386
 2319              	.L390:
 2320 0028 0020     		movs	r0, #0
 2321              	.L386:
 2322 002a 08BD     		pop	{r3, pc}
 2323              	.L393:
 2324              		.align	2
 2325              	.L392:
 2326 002c 00000000 		.word	.LANCHOR0
 2328              		.section	.text.osTimerDelete,"ax",%progbits
 2329              		.align	1
 2330              		.global	osTimerDelete
 2331              		.syntax unified
 2332              		.thumb
 2333              		.thumb_func
 2334              		.fpu fpv4-sp-d16
 2336              	osTimerDelete:
 2337              		@ args = 0, pretend = 0, frame = 0
 2338              		@ frame_needed = 0, uses_anonymous_args = 0
 2339              		.syntax unified
 2340              	@ 209 "Drivers/CMSIS/Include/cmsis_gcc.h" 1
 2341 0000 EFF30583 		MRS r3, ipsr
 2342              	@ 0 "" 2
 2343              		.thumb
 2344              		.syntax unified
 2345 0004 FBB9     		cbnz	r3, .L398
 2346              		.syntax unified
 2347              	@ 386 "Drivers/CMSIS/Include/cmsis_gcc.h" 1
 2348 0006 EFF31083 		MRS r3, primask
 2349              	@ 0 "" 2
 2350              		.thumb
 2351              		.syntax unified
 2352 000a 13B9     		cbnz	r3, .L396
 2353              		.syntax unified
 2354              	@ 465 "Drivers/CMSIS/Include/cmsis_gcc.h" 1
 2355 000c EFF31183 		MRS r3, basepri
ARM GAS  /tmp/ccG9f0RW.s 			page 41


 2356              	@ 0 "" 2
 2357              		.thumb
 2358              		.syntax unified
 2359 0010 1BB1     		cbz	r3, .L397
 2360              	.L396:
 2361 0012 134B     		ldr	r3, .L406
 2362 0014 1B68     		ldr	r3, [r3]
 2363 0016 022B     		cmp	r3, #2
 2364 0018 18D0     		beq	.L399
 2365              	.L397:
 2366 001a D0B1     		cbz	r0, .L400
 2367 001c 30B5     		push	{r4, r5, lr}
 2368 001e 83B0     		sub	sp, sp, #12
 2369 0020 0446     		mov	r4, r0
 2370 0022 FFF7FEFF 		bl	pvTimerGetTimerID
 2371 0026 0546     		mov	r5, r0
 2372 0028 0022     		movs	r2, #0
 2373 002a 0092     		str	r2, [sp]
 2374 002c 1346     		mov	r3, r2
 2375 002e 0521     		movs	r1, #5
 2376 0030 2046     		mov	r0, r4
 2377 0032 FFF7FEFF 		bl	xTimerGenericCommand
 2378 0036 0128     		cmp	r0, #1
 2379 0038 0ED1     		bne	.L401
 2380 003a 2846     		mov	r0, r5
 2381 003c FFF7FEFF 		bl	vPortFree
 2382 0040 0020     		movs	r0, #0
 2383              	.L394:
 2384 0042 03B0     		add	sp, sp, #12
 2385              		@ sp needed
 2386 0044 30BD     		pop	{r4, r5, pc}
 2387              	.L398:
 2388 0046 6FF00500 		mvn	r0, #5
 2389 004a 7047     		bx	lr
 2390              	.L399:
 2391 004c 6FF00500 		mvn	r0, #5
 2392 0050 7047     		bx	lr
 2393              	.L400:
 2394 0052 6FF00300 		mvn	r0, #3
 2395 0056 7047     		bx	lr
 2396              	.L401:
 2397 0058 6FF00200 		mvn	r0, #2
 2398 005c F1E7     		b	.L394
 2399              	.L407:
 2400 005e 00BF     		.align	2
 2401              	.L406:
 2402 0060 00000000 		.word	.LANCHOR0
 2404              		.section	.text.osEventFlagsNew,"ax",%progbits
 2405              		.align	1
 2406              		.global	osEventFlagsNew
 2407              		.syntax unified
 2408              		.thumb
 2409              		.thumb_func
 2410              		.fpu fpv4-sp-d16
 2412              	osEventFlagsNew:
 2413              		@ args = 0, pretend = 0, frame = 0
 2414              		@ frame_needed = 0, uses_anonymous_args = 0
ARM GAS  /tmp/ccG9f0RW.s 			page 42


 2415 0000 08B5     		push	{r3, lr}
 2416              		.syntax unified
 2417              	@ 209 "Drivers/CMSIS/Include/cmsis_gcc.h" 1
 2418 0002 EFF30583 		MRS r3, ipsr
 2419              	@ 0 "" 2
 2420              		.thumb
 2421              		.syntax unified
 2422 0006 1BBB     		cbnz	r3, .L415
 2423              		.syntax unified
 2424              	@ 386 "Drivers/CMSIS/Include/cmsis_gcc.h" 1
 2425 0008 EFF31083 		MRS r3, primask
 2426              	@ 0 "" 2
 2427              		.thumb
 2428              		.syntax unified
 2429 000c 13B9     		cbnz	r3, .L410
 2430              		.syntax unified
 2431              	@ 465 "Drivers/CMSIS/Include/cmsis_gcc.h" 1
 2432 000e EFF31183 		MRS r3, basepri
 2433              	@ 0 "" 2
 2434              		.thumb
 2435              		.syntax unified
 2436 0012 1BB1     		cbz	r3, .L411
 2437              	.L410:
 2438 0014 114B     		ldr	r3, .L423
 2439 0016 1B68     		ldr	r3, [r3]
 2440 0018 022B     		cmp	r3, #2
 2441 001a 1BD0     		beq	.L416
 2442              	.L411:
 2443 001c A0B1     		cbz	r0, .L417
 2444 001e 8368     		ldr	r3, [r0, #8]
 2445 0020 13B1     		cbz	r3, .L413
 2446 0022 C268     		ldr	r2, [r0, #12]
 2447 0024 1F2A     		cmp	r2, #31
 2448 0026 0BD8     		bhi	.L414
 2449              	.L413:
 2450 0028 2BB1     		cbz	r3, .L422
 2451 002a 4FF0FF33 		mov	r3, #-1
 2452              	.L412:
 2453 002e 9BB9     		cbnz	r3, .L420
 2454 0030 FFF7FEFF 		bl	xEventGroupCreate
 2455 0034 0DE0     		b	.L408
 2456              	.L422:
 2457 0036 C368     		ldr	r3, [r0, #12]
 2458 0038 43B1     		cbz	r3, .L419
 2459 003a 4FF0FF33 		mov	r3, #-1
 2460 003e F6E7     		b	.L412
 2461              	.L414:
 2462 0040 1846     		mov	r0, r3
 2463 0042 FFF7FEFF 		bl	xEventGroupCreateStatic
 2464 0046 04E0     		b	.L408
 2465              	.L417:
 2466 0048 0023     		movs	r3, #0
 2467 004a F0E7     		b	.L412
 2468              	.L419:
 2469 004c 0023     		movs	r3, #0
 2470 004e EEE7     		b	.L412
 2471              	.L415:
ARM GAS  /tmp/ccG9f0RW.s 			page 43


 2472 0050 0020     		movs	r0, #0
 2473              	.L408:
 2474 0052 08BD     		pop	{r3, pc}
 2475              	.L416:
 2476 0054 0020     		movs	r0, #0
 2477 0056 FCE7     		b	.L408
 2478              	.L420:
 2479 0058 0020     		movs	r0, #0
 2480 005a FAE7     		b	.L408
 2481              	.L424:
 2482              		.align	2
 2483              	.L423:
 2484 005c 00000000 		.word	.LANCHOR0
 2486              		.section	.text.osEventFlagsSet,"ax",%progbits
 2487              		.align	1
 2488              		.global	osEventFlagsSet
 2489              		.syntax unified
 2490              		.thumb
 2491              		.thumb_func
 2492              		.fpu fpv4-sp-d16
 2494              	osEventFlagsSet:
 2495              		@ args = 0, pretend = 0, frame = 8
 2496              		@ frame_needed = 0, uses_anonymous_args = 0
 2497 0000 50B3     		cbz	r0, .L430
 2498 0002 11F07F4F 		tst	r1, #-16777216
 2499 0006 2AD1     		bne	.L431
 2500 0008 10B5     		push	{r4, lr}
 2501 000a 82B0     		sub	sp, sp, #8
 2502 000c 0C46     		mov	r4, r1
 2503              		.syntax unified
 2504              	@ 209 "Drivers/CMSIS/Include/cmsis_gcc.h" 1
 2505 000e EFF30583 		MRS r3, ipsr
 2506              	@ 0 "" 2
 2507              		.thumb
 2508              		.syntax unified
 2509 0012 73B9     		cbnz	r3, .L427
 2510              		.syntax unified
 2511              	@ 386 "Drivers/CMSIS/Include/cmsis_gcc.h" 1
 2512 0014 EFF31083 		MRS r3, primask
 2513              	@ 0 "" 2
 2514              		.thumb
 2515              		.syntax unified
 2516 0018 13B9     		cbnz	r3, .L428
 2517              		.syntax unified
 2518              	@ 465 "Drivers/CMSIS/Include/cmsis_gcc.h" 1
 2519 001a EFF31183 		MRS r3, basepri
 2520              	@ 0 "" 2
 2521              		.thumb
 2522              		.syntax unified
 2523 001e 1BB1     		cbz	r3, .L429
 2524              	.L428:
 2525 0020 134B     		ldr	r3, .L438
 2526 0022 1B68     		ldr	r3, [r3]
 2527 0024 022B     		cmp	r3, #2
 2528 0026 04D0     		beq	.L427
 2529              	.L429:
 2530 0028 2146     		mov	r1, r4
ARM GAS  /tmp/ccG9f0RW.s 			page 44


 2531 002a FFF7FEFF 		bl	xEventGroupSetBits
 2532              	.L425:
 2533 002e 02B0     		add	sp, sp, #8
 2534              		@ sp needed
 2535 0030 10BD     		pop	{r4, pc}
 2536              	.L427:
 2537 0032 0023     		movs	r3, #0
 2538 0034 0193     		str	r3, [sp, #4]
 2539 0036 01AA     		add	r2, sp, #4
 2540 0038 2146     		mov	r1, r4
 2541 003a FFF7FEFF 		bl	xEventGroupSetBitsFromISR
 2542 003e 88B1     		cbz	r0, .L432
 2543 0040 019B     		ldr	r3, [sp, #4]
 2544 0042 93B1     		cbz	r3, .L433
 2545 0044 0B4B     		ldr	r3, .L438+4
 2546 0046 4FF08052 		mov	r2, #268435456
 2547 004a 1A60     		str	r2, [r3]
 2548              		.syntax unified
 2549              	@ 1103 "Middlewares/Third_Party/FreeRTOS/Source/CMSIS_RTOS_V2/cmsis_os2.c" 1
 2550 004c BFF34F8F 		dsb
 2551              	@ 0 "" 2
 2552              	@ 1103 "Middlewares/Third_Party/FreeRTOS/Source/CMSIS_RTOS_V2/cmsis_os2.c" 1
 2553 0050 BFF36F8F 		isb
 2554              	@ 0 "" 2
 2555              		.thumb
 2556              		.syntax unified
 2557 0054 2046     		mov	r0, r4
 2558 0056 EAE7     		b	.L425
 2559              	.L430:
 2560 0058 6FF00300 		mvn	r0, #3
 2561 005c 7047     		bx	lr
 2562              	.L431:
 2563 005e 6FF00300 		mvn	r0, #3
 2564 0062 7047     		bx	lr
 2565              	.L432:
 2566 0064 6FF00200 		mvn	r0, #2
 2567 0068 E1E7     		b	.L425
 2568              	.L433:
 2569 006a 2046     		mov	r0, r4
 2570 006c DFE7     		b	.L425
 2571              	.L439:
 2572 006e 00BF     		.align	2
 2573              	.L438:
 2574 0070 00000000 		.word	.LANCHOR0
 2575 0074 04ED00E0 		.word	-536810236
 2577              		.section	.text.osEventFlagsClear,"ax",%progbits
 2578              		.align	1
 2579              		.global	osEventFlagsClear
 2580              		.syntax unified
 2581              		.thumb
 2582              		.thumb_func
 2583              		.fpu fpv4-sp-d16
 2585              	osEventFlagsClear:
 2586              		@ args = 0, pretend = 0, frame = 0
 2587              		@ frame_needed = 0, uses_anonymous_args = 0
 2588 0000 70B5     		push	{r4, r5, r6, lr}
 2589 0002 18B3     		cbz	r0, .L445
ARM GAS  /tmp/ccG9f0RW.s 			page 45


 2590 0004 0646     		mov	r6, r0
 2591 0006 11F07F4F 		tst	r1, #-16777216
 2592 000a 22D1     		bne	.L446
 2593 000c 0C46     		mov	r4, r1
 2594              		.syntax unified
 2595              	@ 209 "Drivers/CMSIS/Include/cmsis_gcc.h" 1
 2596 000e EFF30583 		MRS r3, ipsr
 2597              	@ 0 "" 2
 2598              		.thumb
 2599              		.syntax unified
 2600 0012 7BB9     		cbnz	r3, .L442
 2601              		.syntax unified
 2602              	@ 386 "Drivers/CMSIS/Include/cmsis_gcc.h" 1
 2603 0014 EFF31083 		MRS r3, primask
 2604              	@ 0 "" 2
 2605              		.thumb
 2606              		.syntax unified
 2607 0018 13B9     		cbnz	r3, .L443
 2608              		.syntax unified
 2609              	@ 465 "Drivers/CMSIS/Include/cmsis_gcc.h" 1
 2610 001a EFF31183 		MRS r3, basepri
 2611              	@ 0 "" 2
 2612              		.thumb
 2613              		.syntax unified
 2614 001e 1BB1     		cbz	r3, .L444
 2615              	.L443:
 2616 0020 0E4B     		ldr	r3, .L449
 2617 0022 1B68     		ldr	r3, [r3]
 2618 0024 022B     		cmp	r3, #2
 2619 0026 05D0     		beq	.L442
 2620              	.L444:
 2621 0028 2146     		mov	r1, r4
 2622 002a 3046     		mov	r0, r6
 2623 002c FFF7FEFF 		bl	xEventGroupClearBits
 2624 0030 0546     		mov	r5, r0
 2625 0032 10E0     		b	.L440
 2626              	.L442:
 2627 0034 3046     		mov	r0, r6
 2628 0036 FFF7FEFF 		bl	xEventGroupGetBitsFromISR
 2629 003a 0546     		mov	r5, r0
 2630 003c 2146     		mov	r1, r4
 2631 003e 3046     		mov	r0, r6
 2632 0040 FFF7FEFF 		bl	xEventGroupClearBitsFromISR
 2633 0044 38B9     		cbnz	r0, .L440
 2634 0046 6FF00205 		mvn	r5, #2
 2635 004a 04E0     		b	.L440
 2636              	.L445:
 2637 004c 6FF00305 		mvn	r5, #3
 2638 0050 01E0     		b	.L440
 2639              	.L446:
 2640 0052 6FF00305 		mvn	r5, #3
 2641              	.L440:
 2642 0056 2846     		mov	r0, r5
 2643 0058 70BD     		pop	{r4, r5, r6, pc}
 2644              	.L450:
 2645 005a 00BF     		.align	2
 2646              	.L449:
ARM GAS  /tmp/ccG9f0RW.s 			page 46


 2647 005c 00000000 		.word	.LANCHOR0
 2649              		.section	.text.osEventFlagsGet,"ax",%progbits
 2650              		.align	1
 2651              		.global	osEventFlagsGet
 2652              		.syntax unified
 2653              		.thumb
 2654              		.thumb_func
 2655              		.fpu fpv4-sp-d16
 2657              	osEventFlagsGet:
 2658              		@ args = 0, pretend = 0, frame = 0
 2659              		@ frame_needed = 0, uses_anonymous_args = 0
 2660 0000 A0B1     		cbz	r0, .L456
 2661 0002 08B5     		push	{r3, lr}
 2662              		.syntax unified
 2663              	@ 209 "Drivers/CMSIS/Include/cmsis_gcc.h" 1
 2664 0004 EFF30583 		MRS r3, ipsr
 2665              	@ 0 "" 2
 2666              		.thumb
 2667              		.syntax unified
 2668 0008 6BB9     		cbnz	r3, .L453
 2669              		.syntax unified
 2670              	@ 386 "Drivers/CMSIS/Include/cmsis_gcc.h" 1
 2671 000a EFF31083 		MRS r3, primask
 2672              	@ 0 "" 2
 2673              		.thumb
 2674              		.syntax unified
 2675 000e 13B9     		cbnz	r3, .L454
 2676              		.syntax unified
 2677              	@ 465 "Drivers/CMSIS/Include/cmsis_gcc.h" 1
 2678 0010 EFF31183 		MRS r3, basepri
 2679              	@ 0 "" 2
 2680              		.thumb
 2681              		.syntax unified
 2682 0014 1BB1     		cbz	r3, .L455
 2683              	.L454:
 2684 0016 064B     		ldr	r3, .L461
 2685 0018 1B68     		ldr	r3, [r3]
 2686 001a 022B     		cmp	r3, #2
 2687 001c 03D0     		beq	.L453
 2688              	.L455:
 2689 001e 0021     		movs	r1, #0
 2690 0020 FFF7FEFF 		bl	xEventGroupClearBits
 2691 0024 01E0     		b	.L451
 2692              	.L453:
 2693 0026 FFF7FEFF 		bl	xEventGroupGetBitsFromISR
 2694              	.L451:
 2695 002a 08BD     		pop	{r3, pc}
 2696              	.L456:
 2697 002c 0020     		movs	r0, #0
 2698 002e 7047     		bx	lr
 2699              	.L462:
 2700              		.align	2
 2701              	.L461:
 2702 0030 00000000 		.word	.LANCHOR0
 2704              		.section	.text.osEventFlagsWait,"ax",%progbits
 2705              		.align	1
 2706              		.global	osEventFlagsWait
ARM GAS  /tmp/ccG9f0RW.s 			page 47


 2707              		.syntax unified
 2708              		.thumb
 2709              		.thumb_func
 2710              		.fpu fpv4-sp-d16
 2712              	osEventFlagsWait:
 2713              		@ args = 0, pretend = 0, frame = 0
 2714              		@ frame_needed = 0, uses_anonymous_args = 0
 2715 0000 90B3     		cbz	r0, .L470
 2716 0002 F0B5     		push	{r4, r5, r6, r7, lr}
 2717 0004 83B0     		sub	sp, sp, #12
 2718 0006 0446     		mov	r4, r0
 2719 0008 11F07F4F 		tst	r1, #-16777216
 2720 000c 2FD1     		bne	.L471
 2721              		.syntax unified
 2722              	@ 209 "Drivers/CMSIS/Include/cmsis_gcc.h" 1
 2723 000e EFF30580 		MRS r0, ipsr
 2724              	@ 0 "" 2
 2725              		.thumb
 2726              		.syntax unified
 2727 0012 80BB     		cbnz	r0, .L472
 2728              		.syntax unified
 2729              	@ 386 "Drivers/CMSIS/Include/cmsis_gcc.h" 1
 2730 0014 EFF31080 		MRS r0, primask
 2731              	@ 0 "" 2
 2732              		.thumb
 2733              		.syntax unified
 2734 0018 10B9     		cbnz	r0, .L465
 2735              		.syntax unified
 2736              	@ 465 "Drivers/CMSIS/Include/cmsis_gcc.h" 1
 2737 001a EFF31180 		MRS r0, basepri
 2738              	@ 0 "" 2
 2739              		.thumb
 2740              		.syntax unified
 2741 001e 18B1     		cbz	r0, .L466
 2742              	.L465:
 2743 0020 1B48     		ldr	r0, .L482
 2744 0022 0068     		ldr	r0, [r0]
 2745 0024 0228     		cmp	r0, #2
 2746 0026 29D0     		beq	.L473
 2747              	.L466:
 2748 0028 12F00106 		ands	r6, r2, #1
 2749 002c 12D0     		beq	.L474
 2750 002e 0127     		movs	r7, #1
 2751              	.L467:
 2752 0030 12F0020F 		tst	r2, #2
 2753 0034 10D0     		beq	.L475
 2754 0036 0022     		movs	r2, #0
 2755              	.L468:
 2756 0038 2046     		mov	r0, r4
 2757 003a 1D46     		mov	r5, r3
 2758 003c 0C46     		mov	r4, r1
 2759 003e 0093     		str	r3, [sp]
 2760 0040 3B46     		mov	r3, r7
 2761 0042 FFF7FEFF 		bl	xEventGroupWaitBits
 2762 0046 4EB1     		cbz	r6, .L469
 2763 0048 8442     		cmp	r4, r0
 2764 004a 12D0     		beq	.L463
ARM GAS  /tmp/ccG9f0RW.s 			page 48


 2765 004c CDB1     		cbz	r5, .L476
 2766 004e 6FF00100 		mvn	r0, #1
 2767 0052 0EE0     		b	.L463
 2768              	.L474:
 2769 0054 0027     		movs	r7, #0
 2770 0056 EBE7     		b	.L467
 2771              	.L475:
 2772 0058 0122     		movs	r2, #1
 2773 005a EDE7     		b	.L468
 2774              	.L469:
 2775 005c 0442     		tst	r4, r0
 2776 005e 08D1     		bne	.L463
 2777 0060 95B1     		cbz	r5, .L477
 2778 0062 6FF00100 		mvn	r0, #1
 2779 0066 04E0     		b	.L463
 2780              	.L470:
 2781 0068 6FF00300 		mvn	r0, #3
 2782 006c 7047     		bx	lr
 2783              	.L471:
 2784 006e 6FF00300 		mvn	r0, #3
 2785              	.L463:
 2786 0072 03B0     		add	sp, sp, #12
 2787              		@ sp needed
 2788 0074 F0BD     		pop	{r4, r5, r6, r7, pc}
 2789              	.L472:
 2790 0076 6FF00500 		mvn	r0, #5
 2791 007a FAE7     		b	.L463
 2792              	.L473:
 2793 007c 6FF00500 		mvn	r0, #5
 2794 0080 F7E7     		b	.L463
 2795              	.L476:
 2796 0082 6FF00200 		mvn	r0, #2
 2797 0086 F4E7     		b	.L463
 2798              	.L477:
 2799 0088 6FF00200 		mvn	r0, #2
 2800 008c F1E7     		b	.L463
 2801              	.L483:
 2802 008e 00BF     		.align	2
 2803              	.L482:
 2804 0090 00000000 		.word	.LANCHOR0
 2806              		.section	.text.osEventFlagsDelete,"ax",%progbits
 2807              		.align	1
 2808              		.global	osEventFlagsDelete
 2809              		.syntax unified
 2810              		.thumb
 2811              		.thumb_func
 2812              		.fpu fpv4-sp-d16
 2814              	osEventFlagsDelete:
 2815              		@ args = 0, pretend = 0, frame = 0
 2816              		@ frame_needed = 0, uses_anonymous_args = 0
 2817 0000 08B5     		push	{r3, lr}
 2818              		.syntax unified
 2819              	@ 209 "Drivers/CMSIS/Include/cmsis_gcc.h" 1
 2820 0002 EFF30583 		MRS r3, ipsr
 2821              	@ 0 "" 2
 2822              		.thumb
 2823              		.syntax unified
ARM GAS  /tmp/ccG9f0RW.s 			page 49


 2824 0006 73B9     		cbnz	r3, .L488
 2825              		.syntax unified
 2826              	@ 386 "Drivers/CMSIS/Include/cmsis_gcc.h" 1
 2827 0008 EFF31083 		MRS r3, primask
 2828              	@ 0 "" 2
 2829              		.thumb
 2830              		.syntax unified
 2831 000c 13B9     		cbnz	r3, .L486
 2832              		.syntax unified
 2833              	@ 465 "Drivers/CMSIS/Include/cmsis_gcc.h" 1
 2834 000e EFF31183 		MRS r3, basepri
 2835              	@ 0 "" 2
 2836              		.thumb
 2837              		.syntax unified
 2838 0012 1BB1     		cbz	r3, .L487
 2839              	.L486:
 2840 0014 084B     		ldr	r3, .L492
 2841 0016 1B68     		ldr	r3, [r3]
 2842 0018 022B     		cmp	r3, #2
 2843 001a 07D0     		beq	.L489
 2844              	.L487:
 2845 001c 48B1     		cbz	r0, .L490
 2846 001e FFF7FEFF 		bl	vEventGroupDelete
 2847 0022 0020     		movs	r0, #0
 2848              	.L484:
 2849 0024 08BD     		pop	{r3, pc}
 2850              	.L488:
 2851 0026 6FF00500 		mvn	r0, #5
 2852 002a FBE7     		b	.L484
 2853              	.L489:
 2854 002c 6FF00500 		mvn	r0, #5
 2855 0030 F8E7     		b	.L484
 2856              	.L490:
 2857 0032 6FF00300 		mvn	r0, #3
 2858 0036 F5E7     		b	.L484
 2859              	.L493:
 2860              		.align	2
 2861              	.L492:
 2862 0038 00000000 		.word	.LANCHOR0
 2864              		.section	.text.osMutexNew,"ax",%progbits
 2865              		.align	1
 2866              		.global	osMutexNew
 2867              		.syntax unified
 2868              		.thumb
 2869              		.thumb_func
 2870              		.fpu fpv4-sp-d16
 2872              	osMutexNew:
 2873              		@ args = 0, pretend = 0, frame = 0
 2874              		@ frame_needed = 0, uses_anonymous_args = 0
 2875 0000 70B5     		push	{r4, r5, r6, lr}
 2876              		.syntax unified
 2877              	@ 209 "Drivers/CMSIS/Include/cmsis_gcc.h" 1
 2878 0002 EFF30583 		MRS r3, ipsr
 2879              	@ 0 "" 2
 2880              		.thumb
 2881              		.syntax unified
 2882 0006 002B     		cmp	r3, #0
ARM GAS  /tmp/ccG9f0RW.s 			page 50


 2883 0008 47D1     		bne	.L507
 2884 000a 0446     		mov	r4, r0
 2885              		.syntax unified
 2886              	@ 386 "Drivers/CMSIS/Include/cmsis_gcc.h" 1
 2887 000c EFF31082 		MRS r2, primask
 2888              	@ 0 "" 2
 2889              		.thumb
 2890              		.syntax unified
 2891 0010 12B9     		cbnz	r2, .L496
 2892              		.syntax unified
 2893              	@ 465 "Drivers/CMSIS/Include/cmsis_gcc.h" 1
 2894 0012 EFF31182 		MRS r2, basepri
 2895              	@ 0 "" 2
 2896              		.thumb
 2897              		.syntax unified
 2898 0016 1AB1     		cbz	r2, .L497
 2899              	.L496:
 2900 0018 234A     		ldr	r2, .L516
 2901 001a 1268     		ldr	r2, [r2]
 2902 001c 022A     		cmp	r2, #2
 2903 001e 3FD0     		beq	.L508
 2904              	.L497:
 2905 0020 04B1     		cbz	r4, .L498
 2906 0022 6368     		ldr	r3, [r4, #4]
 2907              	.L498:
 2908 0024 03F00106 		and	r6, r3, #1
 2909 0028 13F0080F 		tst	r3, #8
 2910 002c 3AD1     		bne	.L509
 2911 002e 4CB3     		cbz	r4, .L510
 2912 0030 A168     		ldr	r1, [r4, #8]
 2913 0032 11B1     		cbz	r1, .L500
 2914 0034 E368     		ldr	r3, [r4, #12]
 2915 0036 4F2B     		cmp	r3, #79
 2916 0038 19D8     		bhi	.L501
 2917              	.L500:
 2918 003a 99B1     		cbz	r1, .L515
 2919 003c 4FF0FF33 		mov	r3, #-1
 2920              	.L499:
 2921 0040 4BBB     		cbnz	r3, .L513
 2922 0042 1EB3     		cbz	r6, .L505
 2923 0044 0420     		movs	r0, #4
 2924 0046 FFF7FEFF 		bl	xQueueCreateMutex
 2925 004a 0546     		mov	r5, r0
 2926              	.L503:
 2927 004c 2DB1     		cbz	r5, .L504
 2928 004e 04B1     		cbz	r4, .L506
 2929 0050 2468     		ldr	r4, [r4]
 2930              	.L506:
 2931 0052 2146     		mov	r1, r4
 2932 0054 2846     		mov	r0, r5
 2933 0056 FFF7FEFF 		bl	vQueueAddToRegistry
 2934              	.L504:
 2935 005a FDB1     		cbz	r5, .L494
 2936 005c F6B1     		cbz	r6, .L494
 2937 005e 45F00105 		orr	r5, r5, #1
 2938 0062 1BE0     		b	.L494
 2939              	.L515:
ARM GAS  /tmp/ccG9f0RW.s 			page 51


 2940 0064 E368     		ldr	r3, [r4, #12]
 2941 0066 7BB1     		cbz	r3, .L512
 2942 0068 4FF0FF33 		mov	r3, #-1
 2943 006c E8E7     		b	.L499
 2944              	.L501:
 2945 006e 26B1     		cbz	r6, .L502
 2946 0070 0420     		movs	r0, #4
 2947 0072 FFF7FEFF 		bl	xQueueCreateMutexStatic
 2948 0076 0546     		mov	r5, r0
 2949 0078 E8E7     		b	.L503
 2950              	.L502:
 2951 007a 0120     		movs	r0, #1
 2952 007c FFF7FEFF 		bl	xQueueCreateMutexStatic
 2953 0080 0546     		mov	r5, r0
 2954 0082 E3E7     		b	.L503
 2955              	.L510:
 2956 0084 0023     		movs	r3, #0
 2957 0086 DBE7     		b	.L499
 2958              	.L512:
 2959 0088 0023     		movs	r3, #0
 2960 008a D9E7     		b	.L499
 2961              	.L505:
 2962 008c 0120     		movs	r0, #1
 2963 008e FFF7FEFF 		bl	xQueueCreateMutex
 2964 0092 0546     		mov	r5, r0
 2965 0094 DAE7     		b	.L503
 2966              	.L513:
 2967 0096 0025     		movs	r5, #0
 2968 0098 DFE7     		b	.L504
 2969              	.L507:
 2970 009a 0025     		movs	r5, #0
 2971              	.L494:
 2972 009c 2846     		mov	r0, r5
 2973 009e 70BD     		pop	{r4, r5, r6, pc}
 2974              	.L508:
 2975 00a0 0025     		movs	r5, #0
 2976 00a2 FBE7     		b	.L494
 2977              	.L509:
 2978 00a4 0025     		movs	r5, #0
 2979 00a6 F9E7     		b	.L494
 2980              	.L517:
 2981              		.align	2
 2982              	.L516:
 2983 00a8 00000000 		.word	.LANCHOR0
 2985              		.section	.text.osMutexAcquire,"ax",%progbits
 2986              		.align	1
 2987              		.global	osMutexAcquire
 2988              		.syntax unified
 2989              		.thumb
 2990              		.thumb_func
 2991              		.fpu fpv4-sp-d16
 2993              	osMutexAcquire:
 2994              		@ args = 0, pretend = 0, frame = 0
 2995              		@ frame_needed = 0, uses_anonymous_args = 0
 2996 0000 20F00102 		bic	r2, r0, #1
 2997 0004 00F00103 		and	r3, r0, #1
 2998              		.syntax unified
ARM GAS  /tmp/ccG9f0RW.s 			page 52


 2999              	@ 209 "Drivers/CMSIS/Include/cmsis_gcc.h" 1
 3000 0008 EFF30580 		MRS r0, ipsr
 3001              	@ 0 "" 2
 3002              		.thumb
 3003              		.syntax unified
 3004 000c F8B9     		cbnz	r0, .L523
 3005              		.syntax unified
 3006              	@ 386 "Drivers/CMSIS/Include/cmsis_gcc.h" 1
 3007 000e EFF31080 		MRS r0, primask
 3008              	@ 0 "" 2
 3009              		.thumb
 3010              		.syntax unified
 3011 0012 10B9     		cbnz	r0, .L520
 3012              		.syntax unified
 3013              	@ 465 "Drivers/CMSIS/Include/cmsis_gcc.h" 1
 3014 0014 EFF31180 		MRS r0, basepri
 3015              	@ 0 "" 2
 3016              		.thumb
 3017              		.syntax unified
 3018 0018 18B1     		cbz	r0, .L521
 3019              	.L520:
 3020 001a 1648     		ldr	r0, .L534
 3021 001c 0068     		ldr	r0, [r0]
 3022 001e 0228     		cmp	r0, #2
 3023 0020 18D0     		beq	.L524
 3024              	.L521:
 3025 0022 D2B1     		cbz	r2, .L525
 3026 0024 10B5     		push	{r4, lr}
 3027 0026 0C46     		mov	r4, r1
 3028 0028 43B1     		cbz	r3, .L522
 3029 002a 1046     		mov	r0, r2
 3030 002c FFF7FEFF 		bl	xQueueTakeMutexRecursive
 3031 0030 0128     		cmp	r0, #1
 3032 0032 15D0     		beq	.L526
 3033 0034 B4B1     		cbz	r4, .L527
 3034 0036 6FF00100 		mvn	r0, #1
 3035 003a 12E0     		b	.L518
 3036              	.L522:
 3037 003c 1046     		mov	r0, r2
 3038 003e FFF7FEFF 		bl	xQueueSemaphoreTake
 3039 0042 0128     		cmp	r0, #1
 3040 0044 11D0     		beq	.L528
 3041 0046 94B1     		cbz	r4, .L529
 3042 0048 6FF00100 		mvn	r0, #1
 3043 004c 09E0     		b	.L518
 3044              	.L523:
 3045 004e 6FF00500 		mvn	r0, #5
 3046 0052 7047     		bx	lr
 3047              	.L524:
 3048 0054 6FF00500 		mvn	r0, #5
 3049 0058 7047     		bx	lr
 3050              	.L525:
 3051 005a 6FF00300 		mvn	r0, #3
 3052 005e 7047     		bx	lr
 3053              	.L526:
 3054 0060 0020     		movs	r0, #0
 3055              	.L518:
ARM GAS  /tmp/ccG9f0RW.s 			page 53


 3056 0062 10BD     		pop	{r4, pc}
 3057              	.L527:
 3058 0064 6FF00200 		mvn	r0, #2
 3059 0068 FBE7     		b	.L518
 3060              	.L528:
 3061 006a 0020     		movs	r0, #0
 3062 006c F9E7     		b	.L518
 3063              	.L529:
 3064 006e 6FF00200 		mvn	r0, #2
 3065 0072 F6E7     		b	.L518
 3066              	.L535:
 3067              		.align	2
 3068              	.L534:
 3069 0074 00000000 		.word	.LANCHOR0
 3071              		.section	.text.osMutexRelease,"ax",%progbits
 3072              		.align	1
 3073              		.global	osMutexRelease
 3074              		.syntax unified
 3075              		.thumb
 3076              		.thumb_func
 3077              		.fpu fpv4-sp-d16
 3079              	osMutexRelease:
 3080              		@ args = 0, pretend = 0, frame = 0
 3081              		@ frame_needed = 0, uses_anonymous_args = 0
 3082              		.syntax unified
 3083              	@ 209 "Drivers/CMSIS/Include/cmsis_gcc.h" 1
 3084 0000 EFF30582 		MRS r2, ipsr
 3085              	@ 0 "" 2
 3086              		.thumb
 3087              		.syntax unified
 3088 0004 0ABB     		cbnz	r2, .L541
 3089 0006 10B5     		push	{r4, lr}
 3090 0008 20F00104 		bic	r4, r0, #1
 3091 000c 00F00100 		and	r0, r0, #1
 3092              		.syntax unified
 3093              	@ 386 "Drivers/CMSIS/Include/cmsis_gcc.h" 1
 3094 0010 EFF31082 		MRS r2, primask
 3095              	@ 0 "" 2
 3096              		.thumb
 3097              		.syntax unified
 3098 0014 12B9     		cbnz	r2, .L538
 3099              		.syntax unified
 3100              	@ 465 "Drivers/CMSIS/Include/cmsis_gcc.h" 1
 3101 0016 EFF31182 		MRS r2, basepri
 3102              	@ 0 "" 2
 3103              		.thumb
 3104              		.syntax unified
 3105 001a 1AB1     		cbz	r2, .L539
 3106              	.L538:
 3107 001c 124A     		ldr	r2, .L550
 3108 001e 1268     		ldr	r2, [r2]
 3109 0020 022A     		cmp	r2, #2
 3110 0022 15D0     		beq	.L542
 3111              	.L539:
 3112 0024 BCB1     		cbz	r4, .L543
 3113 0026 30B1     		cbz	r0, .L540
 3114 0028 2046     		mov	r0, r4
ARM GAS  /tmp/ccG9f0RW.s 			page 54


 3115 002a FFF7FEFF 		bl	xQueueGiveMutexRecursive
 3116 002e 0128     		cmp	r0, #1
 3117 0030 14D1     		bne	.L544
 3118 0032 0020     		movs	r0, #0
 3119              	.L536:
 3120 0034 10BD     		pop	{r4, pc}
 3121              	.L540:
 3122 0036 0023     		movs	r3, #0
 3123 0038 1A46     		mov	r2, r3
 3124 003a 1946     		mov	r1, r3
 3125 003c 2046     		mov	r0, r4
 3126 003e FFF7FEFF 		bl	xQueueGenericSend
 3127 0042 0128     		cmp	r0, #1
 3128 0044 0DD1     		bne	.L545
 3129 0046 0020     		movs	r0, #0
 3130 0048 F4E7     		b	.L536
 3131              	.L541:
 3132 004a 6FF00500 		mvn	r0, #5
 3133 004e 7047     		bx	lr
 3134              	.L542:
 3135 0050 6FF00500 		mvn	r0, #5
 3136 0054 EEE7     		b	.L536
 3137              	.L543:
 3138 0056 6FF00300 		mvn	r0, #3
 3139 005a EBE7     		b	.L536
 3140              	.L544:
 3141 005c 6FF00200 		mvn	r0, #2
 3142 0060 E8E7     		b	.L536
 3143              	.L545:
 3144 0062 6FF00200 		mvn	r0, #2
 3145 0066 E5E7     		b	.L536
 3146              	.L551:
 3147              		.align	2
 3148              	.L550:
 3149 0068 00000000 		.word	.LANCHOR0
 3151              		.section	.text.osMutexGetOwner,"ax",%progbits
 3152              		.align	1
 3153              		.global	osMutexGetOwner
 3154              		.syntax unified
 3155              		.thumb
 3156              		.thumb_func
 3157              		.fpu fpv4-sp-d16
 3159              	osMutexGetOwner:
 3160              		@ args = 0, pretend = 0, frame = 0
 3161              		@ frame_needed = 0, uses_anonymous_args = 0
 3162 0000 08B5     		push	{r3, lr}
 3163              		.syntax unified
 3164              	@ 209 "Drivers/CMSIS/Include/cmsis_gcc.h" 1
 3165 0002 EFF30583 		MRS r3, ipsr
 3166              	@ 0 "" 2
 3167              		.thumb
 3168              		.syntax unified
 3169 0006 7BB9     		cbnz	r3, .L556
 3170 0008 20F00100 		bic	r0, r0, #1
 3171              		.syntax unified
 3172              	@ 386 "Drivers/CMSIS/Include/cmsis_gcc.h" 1
 3173 000c EFF31083 		MRS r3, primask
ARM GAS  /tmp/ccG9f0RW.s 			page 55


 3174              	@ 0 "" 2
 3175              		.thumb
 3176              		.syntax unified
 3177 0010 13B9     		cbnz	r3, .L554
 3178              		.syntax unified
 3179              	@ 465 "Drivers/CMSIS/Include/cmsis_gcc.h" 1
 3180 0012 EFF31183 		MRS r3, basepri
 3181              	@ 0 "" 2
 3182              		.thumb
 3183              		.syntax unified
 3184 0016 1BB1     		cbz	r3, .L555
 3185              	.L554:
 3186 0018 064B     		ldr	r3, .L560
 3187 001a 1B68     		ldr	r3, [r3]
 3188 001c 022B     		cmp	r3, #2
 3189 001e 05D0     		beq	.L557
 3190              	.L555:
 3191 0020 30B1     		cbz	r0, .L558
 3192 0022 FFF7FEFF 		bl	xQueueGetMutexHolder
 3193              	.L552:
 3194 0026 08BD     		pop	{r3, pc}
 3195              	.L556:
 3196 0028 0020     		movs	r0, #0
 3197 002a FCE7     		b	.L552
 3198              	.L557:
 3199 002c 0020     		movs	r0, #0
 3200 002e FAE7     		b	.L552
 3201              	.L558:
 3202 0030 0020     		movs	r0, #0
 3203 0032 F8E7     		b	.L552
 3204              	.L561:
 3205              		.align	2
 3206              	.L560:
 3207 0034 00000000 		.word	.LANCHOR0
 3209              		.section	.text.osMutexDelete,"ax",%progbits
 3210              		.align	1
 3211              		.global	osMutexDelete
 3212              		.syntax unified
 3213              		.thumb
 3214              		.thumb_func
 3215              		.fpu fpv4-sp-d16
 3217              	osMutexDelete:
 3218              		@ args = 0, pretend = 0, frame = 0
 3219              		@ frame_needed = 0, uses_anonymous_args = 0
 3220              		.syntax unified
 3221              	@ 209 "Drivers/CMSIS/Include/cmsis_gcc.h" 1
 3222 0000 EFF30583 		MRS r3, ipsr
 3223              	@ 0 "" 2
 3224              		.thumb
 3225              		.syntax unified
 3226 0004 ABB9     		cbnz	r3, .L566
 3227 0006 10B5     		push	{r4, lr}
 3228 0008 20F00104 		bic	r4, r0, #1
 3229              		.syntax unified
 3230              	@ 386 "Drivers/CMSIS/Include/cmsis_gcc.h" 1
 3231 000c EFF31083 		MRS r3, primask
 3232              	@ 0 "" 2
ARM GAS  /tmp/ccG9f0RW.s 			page 56


 3233              		.thumb
 3234              		.syntax unified
 3235 0010 13B9     		cbnz	r3, .L564
 3236              		.syntax unified
 3237              	@ 465 "Drivers/CMSIS/Include/cmsis_gcc.h" 1
 3238 0012 EFF31183 		MRS r3, basepri
 3239              	@ 0 "" 2
 3240              		.thumb
 3241              		.syntax unified
 3242 0016 1BB1     		cbz	r3, .L565
 3243              	.L564:
 3244 0018 0A4B     		ldr	r3, .L573
 3245 001a 1B68     		ldr	r3, [r3]
 3246 001c 022B     		cmp	r3, #2
 3247 001e 0BD0     		beq	.L567
 3248              	.L565:
 3249 0020 6CB1     		cbz	r4, .L568
 3250 0022 2046     		mov	r0, r4
 3251 0024 FFF7FEFF 		bl	vQueueUnregisterQueue
 3252 0028 2046     		mov	r0, r4
 3253 002a FFF7FEFF 		bl	vQueueDelete
 3254 002e 0020     		movs	r0, #0
 3255              	.L562:
 3256 0030 10BD     		pop	{r4, pc}
 3257              	.L566:
 3258 0032 6FF00500 		mvn	r0, #5
 3259 0036 7047     		bx	lr
 3260              	.L567:
 3261 0038 6FF00500 		mvn	r0, #5
 3262 003c F8E7     		b	.L562
 3263              	.L568:
 3264 003e 6FF00300 		mvn	r0, #3
 3265 0042 F5E7     		b	.L562
 3266              	.L574:
 3267              		.align	2
 3268              	.L573:
 3269 0044 00000000 		.word	.LANCHOR0
 3271              		.section	.text.osSemaphoreNew,"ax",%progbits
 3272              		.align	1
 3273              		.global	osSemaphoreNew
 3274              		.syntax unified
 3275              		.thumb
 3276              		.thumb_func
 3277              		.fpu fpv4-sp-d16
 3279              	osSemaphoreNew:
 3280              		@ args = 0, pretend = 0, frame = 0
 3281              		@ frame_needed = 0, uses_anonymous_args = 0
 3282 0000 70B5     		push	{r4, r5, r6, lr}
 3283 0002 82B0     		sub	sp, sp, #8
 3284              		.syntax unified
 3285              	@ 209 "Drivers/CMSIS/Include/cmsis_gcc.h" 1
 3286 0004 EFF30583 		MRS r3, ipsr
 3287              	@ 0 "" 2
 3288              		.thumb
 3289              		.syntax unified
 3290 0008 002B     		cmp	r3, #0
 3291 000a 53D1     		bne	.L587
ARM GAS  /tmp/ccG9f0RW.s 			page 57


 3292 000c 0E46     		mov	r6, r1
 3293 000e 1546     		mov	r5, r2
 3294              		.syntax unified
 3295              	@ 386 "Drivers/CMSIS/Include/cmsis_gcc.h" 1
 3296 0010 EFF31083 		MRS r3, primask
 3297              	@ 0 "" 2
 3298              		.thumb
 3299              		.syntax unified
 3300 0014 13B9     		cbnz	r3, .L577
 3301              		.syntax unified
 3302              	@ 465 "Drivers/CMSIS/Include/cmsis_gcc.h" 1
 3303 0016 EFF31183 		MRS r3, basepri
 3304              	@ 0 "" 2
 3305              		.thumb
 3306              		.syntax unified
 3307 001a 1BB1     		cbz	r3, .L578
 3308              	.L577:
 3309 001c 2B4B     		ldr	r3, .L598
 3310 001e 1B68     		ldr	r3, [r3]
 3311 0020 022B     		cmp	r3, #2
 3312 0022 4BD0     		beq	.L588
 3313              	.L578:
 3314 0024 0028     		cmp	r0, #0
 3315 0026 4BD0     		beq	.L589
 3316 0028 B042     		cmp	r0, r6
 3317 002a 4BD3     		bcc	.L590
 3318 002c 4DB1     		cbz	r5, .L591
 3319 002e AC68     		ldr	r4, [r5, #8]
 3320 0030 14B1     		cbz	r4, .L580
 3321 0032 EB68     		ldr	r3, [r5, #12]
 3322 0034 4F2B     		cmp	r3, #79
 3323 0036 14D8     		bhi	.L592
 3324              	.L580:
 3325 0038 002C     		cmp	r4, #0
 3326 003a 45D1     		bne	.L593
 3327 003c EB68     		ldr	r3, [r5, #12]
 3328 003e 0BB1     		cbz	r3, .L579
 3329 0040 39E0     		b	.L575
 3330              	.L591:
 3331 0042 0023     		movs	r3, #0
 3332              	.L579:
 3333 0044 0128     		cmp	r0, #1
 3334 0046 0ED0     		beq	.L595
 3335 0048 73BB     		cbnz	r3, .L596
 3336 004a 3146     		mov	r1, r6
 3337 004c FFF7FEFF 		bl	xQueueCreateCountingSemaphore
 3338 0050 0446     		mov	r4, r0
 3339              	.L584:
 3340 0052 84B3     		cbz	r4, .L575
 3341 0054 05B1     		cbz	r5, .L586
 3342 0056 2D68     		ldr	r5, [r5]
 3343              	.L586:
 3344 0058 2946     		mov	r1, r5
 3345 005a 2046     		mov	r0, r4
 3346 005c FFF7FEFF 		bl	vQueueAddToRegistry
 3347 0060 29E0     		b	.L575
 3348              	.L592:
ARM GAS  /tmp/ccG9f0RW.s 			page 58


 3349 0062 0123     		movs	r3, #1
 3350 0064 EEE7     		b	.L579
 3351              	.L595:
 3352 0066 B3B9     		cbnz	r3, .L597
 3353 0068 0322     		movs	r2, #3
 3354 006a 0021     		movs	r1, #0
 3355 006c 0120     		movs	r0, #1
 3356 006e FFF7FEFF 		bl	xQueueGenericCreate
 3357 0072 0446     		mov	r4, r0
 3358              	.L583:
 3359 0074 002C     		cmp	r4, #0
 3360 0076 ECD0     		beq	.L584
 3361 0078 002E     		cmp	r6, #0
 3362 007a EAD0     		beq	.L584
 3363 007c 0023     		movs	r3, #0
 3364 007e 1A46     		mov	r2, r3
 3365 0080 1946     		mov	r1, r3
 3366 0082 2046     		mov	r0, r4
 3367 0084 FFF7FEFF 		bl	xQueueGenericSend
 3368 0088 0128     		cmp	r0, #1
 3369 008a E2D0     		beq	.L584
 3370 008c 2046     		mov	r0, r4
 3371 008e FFF7FEFF 		bl	vQueueDelete
 3372 0092 0024     		movs	r4, #0
 3373 0094 0FE0     		b	.L575
 3374              	.L597:
 3375 0096 AB68     		ldr	r3, [r5, #8]
 3376 0098 0322     		movs	r2, #3
 3377 009a 0092     		str	r2, [sp]
 3378 009c 0022     		movs	r2, #0
 3379 009e 1146     		mov	r1, r2
 3380 00a0 FFF7FEFF 		bl	xQueueGenericCreateStatic
 3381 00a4 0446     		mov	r4, r0
 3382 00a6 E5E7     		b	.L583
 3383              	.L596:
 3384 00a8 AA68     		ldr	r2, [r5, #8]
 3385 00aa 3146     		mov	r1, r6
 3386 00ac FFF7FEFF 		bl	xQueueCreateCountingSemaphoreStatic
 3387 00b0 0446     		mov	r4, r0
 3388 00b2 CEE7     		b	.L584
 3389              	.L587:
 3390 00b4 0024     		movs	r4, #0
 3391              	.L575:
 3392 00b6 2046     		mov	r0, r4
 3393 00b8 02B0     		add	sp, sp, #8
 3394              		@ sp needed
 3395 00ba 70BD     		pop	{r4, r5, r6, pc}
 3396              	.L588:
 3397 00bc 0024     		movs	r4, #0
 3398 00be FAE7     		b	.L575
 3399              	.L589:
 3400 00c0 0024     		movs	r4, #0
 3401 00c2 F8E7     		b	.L575
 3402              	.L590:
 3403 00c4 0024     		movs	r4, #0
 3404 00c6 F6E7     		b	.L575
 3405              	.L593:
ARM GAS  /tmp/ccG9f0RW.s 			page 59


 3406 00c8 0024     		movs	r4, #0
 3407 00ca F4E7     		b	.L575
 3408              	.L599:
 3409              		.align	2
 3410              	.L598:
 3411 00cc 00000000 		.word	.LANCHOR0
 3413              		.section	.text.osSemaphoreAcquire,"ax",%progbits
 3414              		.align	1
 3415              		.global	osSemaphoreAcquire
 3416              		.syntax unified
 3417              		.thumb
 3418              		.thumb_func
 3419              		.fpu fpv4-sp-d16
 3421              	osSemaphoreAcquire:
 3422              		@ args = 0, pretend = 0, frame = 8
 3423              		@ frame_needed = 0, uses_anonymous_args = 0
 3424 0000 68B3     		cbz	r0, .L605
 3425 0002 10B5     		push	{r4, lr}
 3426 0004 82B0     		sub	sp, sp, #8
 3427 0006 0C46     		mov	r4, r1
 3428              		.syntax unified
 3429              	@ 209 "Drivers/CMSIS/Include/cmsis_gcc.h" 1
 3430 0008 EFF30583 		MRS r3, ipsr
 3431              	@ 0 "" 2
 3432              		.thumb
 3433              		.syntax unified
 3434 000c 93B9     		cbnz	r3, .L602
 3435              		.syntax unified
 3436              	@ 386 "Drivers/CMSIS/Include/cmsis_gcc.h" 1
 3437 000e EFF31083 		MRS r3, primask
 3438              	@ 0 "" 2
 3439              		.thumb
 3440              		.syntax unified
 3441 0012 13B9     		cbnz	r3, .L603
 3442              		.syntax unified
 3443              	@ 465 "Drivers/CMSIS/Include/cmsis_gcc.h" 1
 3444 0014 EFF31183 		MRS r3, basepri
 3445              	@ 0 "" 2
 3446              		.thumb
 3447              		.syntax unified
 3448 0018 1BB1     		cbz	r3, .L604
 3449              	.L603:
 3450 001a 184B     		ldr	r3, .L614
 3451 001c 1B68     		ldr	r3, [r3]
 3452 001e 022B     		cmp	r3, #2
 3453 0020 08D0     		beq	.L602
 3454              	.L604:
 3455 0022 2146     		mov	r1, r4
 3456 0024 FFF7FEFF 		bl	xQueueSemaphoreTake
 3457 0028 0128     		cmp	r0, #1
 3458 002a 21D0     		beq	.L608
 3459 002c 14B3     		cbz	r4, .L609
 3460 002e 6FF00100 		mvn	r0, #1
 3461 0032 12E0     		b	.L600
 3462              	.L602:
 3463 0034 B4B9     		cbnz	r4, .L606
 3464 0036 0021     		movs	r1, #0
ARM GAS  /tmp/ccG9f0RW.s 			page 60


 3465 0038 0191     		str	r1, [sp, #4]
 3466 003a 01AA     		add	r2, sp, #4
 3467 003c FFF7FEFF 		bl	xQueueReceiveFromISR
 3468 0040 0128     		cmp	r0, #1
 3469 0042 12D1     		bne	.L607
 3470 0044 0198     		ldr	r0, [sp, #4]
 3471 0046 40B1     		cbz	r0, .L600
 3472 0048 0D4B     		ldr	r3, .L614+4
 3473 004a 4FF08052 		mov	r2, #268435456
 3474 004e 1A60     		str	r2, [r3]
 3475              		.syntax unified
 3476              	@ 1509 "Middlewares/Third_Party/FreeRTOS/Source/CMSIS_RTOS_V2/cmsis_os2.c" 1
 3477 0050 BFF34F8F 		dsb
 3478              	@ 0 "" 2
 3479              	@ 1509 "Middlewares/Third_Party/FreeRTOS/Source/CMSIS_RTOS_V2/cmsis_os2.c" 1
 3480 0054 BFF36F8F 		isb
 3481              	@ 0 "" 2
 3482              		.thumb
 3483              		.syntax unified
 3484 0058 0020     		movs	r0, #0
 3485              	.L600:
 3486 005a 02B0     		add	sp, sp, #8
 3487              		@ sp needed
 3488 005c 10BD     		pop	{r4, pc}
 3489              	.L605:
 3490 005e 6FF00300 		mvn	r0, #3
 3491 0062 7047     		bx	lr
 3492              	.L606:
 3493 0064 6FF00300 		mvn	r0, #3
 3494 0068 F7E7     		b	.L600
 3495              	.L607:
 3496 006a 6FF00200 		mvn	r0, #2
 3497 006e F4E7     		b	.L600
 3498              	.L608:
 3499 0070 0020     		movs	r0, #0
 3500 0072 F2E7     		b	.L600
 3501              	.L609:
 3502 0074 6FF00200 		mvn	r0, #2
 3503 0078 EFE7     		b	.L600
 3504              	.L615:
 3505 007a 00BF     		.align	2
 3506              	.L614:
 3507 007c 00000000 		.word	.LANCHOR0
 3508 0080 04ED00E0 		.word	-536810236
 3510              		.section	.text.osSemaphoreRelease,"ax",%progbits
 3511              		.align	1
 3512              		.global	osSemaphoreRelease
 3513              		.syntax unified
 3514              		.thumb
 3515              		.thumb_func
 3516              		.fpu fpv4-sp-d16
 3518              	osSemaphoreRelease:
 3519              		@ args = 0, pretend = 0, frame = 8
 3520              		@ frame_needed = 0, uses_anonymous_args = 0
 3521 0000 68B3     		cbz	r0, .L621
 3522 0002 00B5     		push	{lr}
 3523 0004 83B0     		sub	sp, sp, #12
ARM GAS  /tmp/ccG9f0RW.s 			page 61


 3524              		.syntax unified
 3525              	@ 209 "Drivers/CMSIS/Include/cmsis_gcc.h" 1
 3526 0006 EFF30583 		MRS r3, ipsr
 3527              	@ 0 "" 2
 3528              		.thumb
 3529              		.syntax unified
 3530 000a A3B9     		cbnz	r3, .L618
 3531              		.syntax unified
 3532              	@ 386 "Drivers/CMSIS/Include/cmsis_gcc.h" 1
 3533 000c EFF31083 		MRS r3, primask
 3534              	@ 0 "" 2
 3535              		.thumb
 3536              		.syntax unified
 3537 0010 13B9     		cbnz	r3, .L619
 3538              		.syntax unified
 3539              	@ 465 "Drivers/CMSIS/Include/cmsis_gcc.h" 1
 3540 0012 EFF31183 		MRS r3, basepri
 3541              	@ 0 "" 2
 3542              		.thumb
 3543              		.syntax unified
 3544 0016 1BB1     		cbz	r3, .L620
 3545              	.L619:
 3546 0018 154B     		ldr	r3, .L628
 3547 001a 1B68     		ldr	r3, [r3]
 3548 001c 022B     		cmp	r3, #2
 3549 001e 0AD0     		beq	.L618
 3550              	.L620:
 3551 0020 0023     		movs	r3, #0
 3552 0022 1A46     		mov	r2, r3
 3553 0024 1946     		mov	r1, r3
 3554 0026 FFF7FEFF 		bl	xQueueGenericSend
 3555 002a 0128     		cmp	r0, #1
 3556 002c 1DD1     		bne	.L623
 3557 002e 0020     		movs	r0, #0
 3558              	.L616:
 3559 0030 03B0     		add	sp, sp, #12
 3560              		@ sp needed
 3561 0032 5DF804FB 		ldr	pc, [sp], #4
 3562              	.L618:
 3563 0036 0023     		movs	r3, #0
 3564 0038 0193     		str	r3, [sp, #4]
 3565 003a 01A9     		add	r1, sp, #4
 3566 003c FFF7FEFF 		bl	xQueueGiveFromISR
 3567 0040 0128     		cmp	r0, #1
 3568 0042 0FD1     		bne	.L622
 3569 0044 0198     		ldr	r0, [sp, #4]
 3570 0046 0028     		cmp	r0, #0
 3571 0048 F2D0     		beq	.L616
 3572 004a 0A4B     		ldr	r3, .L628+4
 3573 004c 4FF08052 		mov	r2, #268435456
 3574 0050 1A60     		str	r2, [r3]
 3575              		.syntax unified
 3576              	@ 1542 "Middlewares/Third_Party/FreeRTOS/Source/CMSIS_RTOS_V2/cmsis_os2.c" 1
 3577 0052 BFF34F8F 		dsb
 3578              	@ 0 "" 2
 3579              	@ 1542 "Middlewares/Third_Party/FreeRTOS/Source/CMSIS_RTOS_V2/cmsis_os2.c" 1
 3580 0056 BFF36F8F 		isb
ARM GAS  /tmp/ccG9f0RW.s 			page 62


 3581              	@ 0 "" 2
 3582              		.thumb
 3583              		.syntax unified
 3584 005a 0020     		movs	r0, #0
 3585 005c E8E7     		b	.L616
 3586              	.L621:
 3587 005e 6FF00300 		mvn	r0, #3
 3588 0062 7047     		bx	lr
 3589              	.L622:
 3590 0064 6FF00200 		mvn	r0, #2
 3591 0068 E2E7     		b	.L616
 3592              	.L623:
 3593 006a 6FF00200 		mvn	r0, #2
 3594 006e DFE7     		b	.L616
 3595              	.L629:
 3596              		.align	2
 3597              	.L628:
 3598 0070 00000000 		.word	.LANCHOR0
 3599 0074 04ED00E0 		.word	-536810236
 3601              		.section	.text.osSemaphoreGetCount,"ax",%progbits
 3602              		.align	1
 3603              		.global	osSemaphoreGetCount
 3604              		.syntax unified
 3605              		.thumb
 3606              		.thumb_func
 3607              		.fpu fpv4-sp-d16
 3609              	osSemaphoreGetCount:
 3610              		@ args = 0, pretend = 0, frame = 0
 3611              		@ frame_needed = 0, uses_anonymous_args = 0
 3612 0000 98B1     		cbz	r0, .L635
 3613 0002 08B5     		push	{r3, lr}
 3614              		.syntax unified
 3615              	@ 209 "Drivers/CMSIS/Include/cmsis_gcc.h" 1
 3616 0004 EFF30583 		MRS r3, ipsr
 3617              	@ 0 "" 2
 3618              		.thumb
 3619              		.syntax unified
 3620 0008 63B9     		cbnz	r3, .L632
 3621              		.syntax unified
 3622              	@ 386 "Drivers/CMSIS/Include/cmsis_gcc.h" 1
 3623 000a EFF31083 		MRS r3, primask
 3624              	@ 0 "" 2
 3625              		.thumb
 3626              		.syntax unified
 3627 000e 13B9     		cbnz	r3, .L633
 3628              		.syntax unified
 3629              	@ 465 "Drivers/CMSIS/Include/cmsis_gcc.h" 1
 3630 0010 EFF31183 		MRS r3, basepri
 3631              	@ 0 "" 2
 3632              		.thumb
 3633              		.syntax unified
 3634 0014 1BB1     		cbz	r3, .L634
 3635              	.L633:
 3636 0016 064B     		ldr	r3, .L640
 3637 0018 1B68     		ldr	r3, [r3]
 3638 001a 022B     		cmp	r3, #2
 3639 001c 02D0     		beq	.L632
ARM GAS  /tmp/ccG9f0RW.s 			page 63


 3640              	.L634:
 3641 001e FFF7FEFF 		bl	uxQueueMessagesWaiting
 3642 0022 01E0     		b	.L630
 3643              	.L632:
 3644 0024 FFF7FEFF 		bl	uxQueueMessagesWaitingFromISR
 3645              	.L630:
 3646 0028 08BD     		pop	{r3, pc}
 3647              	.L635:
 3648 002a 0020     		movs	r0, #0
 3649 002c 7047     		bx	lr
 3650              	.L641:
 3651 002e 00BF     		.align	2
 3652              	.L640:
 3653 0030 00000000 		.word	.LANCHOR0
 3655              		.section	.text.osSemaphoreDelete,"ax",%progbits
 3656              		.align	1
 3657              		.global	osSemaphoreDelete
 3658              		.syntax unified
 3659              		.thumb
 3660              		.thumb_func
 3661              		.fpu fpv4-sp-d16
 3663              	osSemaphoreDelete:
 3664              		@ args = 0, pretend = 0, frame = 0
 3665              		@ frame_needed = 0, uses_anonymous_args = 0
 3666              		.syntax unified
 3667              	@ 209 "Drivers/CMSIS/Include/cmsis_gcc.h" 1
 3668 0000 EFF30583 		MRS r3, ipsr
 3669              	@ 0 "" 2
 3670              		.thumb
 3671              		.syntax unified
 3672 0004 9BB9     		cbnz	r3, .L646
 3673              		.syntax unified
 3674              	@ 386 "Drivers/CMSIS/Include/cmsis_gcc.h" 1
 3675 0006 EFF31083 		MRS r3, primask
 3676              	@ 0 "" 2
 3677              		.thumb
 3678              		.syntax unified
 3679 000a 13B9     		cbnz	r3, .L644
 3680              		.syntax unified
 3681              	@ 465 "Drivers/CMSIS/Include/cmsis_gcc.h" 1
 3682 000c EFF31183 		MRS r3, basepri
 3683              	@ 0 "" 2
 3684              		.thumb
 3685              		.syntax unified
 3686 0010 1BB1     		cbz	r3, .L645
 3687              	.L644:
 3688 0012 0B4B     		ldr	r3, .L653
 3689 0014 1B68     		ldr	r3, [r3]
 3690 0016 022B     		cmp	r3, #2
 3691 0018 0CD0     		beq	.L647
 3692              	.L645:
 3693 001a 70B1     		cbz	r0, .L648
 3694 001c 10B5     		push	{r4, lr}
 3695 001e 0446     		mov	r4, r0
 3696 0020 FFF7FEFF 		bl	vQueueUnregisterQueue
 3697 0024 2046     		mov	r0, r4
 3698 0026 FFF7FEFF 		bl	vQueueDelete
ARM GAS  /tmp/ccG9f0RW.s 			page 64


 3699 002a 0020     		movs	r0, #0
 3700 002c 10BD     		pop	{r4, pc}
 3701              	.L646:
 3702 002e 6FF00500 		mvn	r0, #5
 3703 0032 7047     		bx	lr
 3704              	.L647:
 3705 0034 6FF00500 		mvn	r0, #5
 3706 0038 7047     		bx	lr
 3707              	.L648:
 3708 003a 6FF00300 		mvn	r0, #3
 3709 003e 7047     		bx	lr
 3710              	.L654:
 3711              		.align	2
 3712              	.L653:
 3713 0040 00000000 		.word	.LANCHOR0
 3715              		.section	.text.osMessageQueueNew,"ax",%progbits
 3716              		.align	1
 3717              		.global	osMessageQueueNew
 3718              		.syntax unified
 3719              		.thumb
 3720              		.thumb_func
 3721              		.fpu fpv4-sp-d16
 3723              	osMessageQueueNew:
 3724              		@ args = 0, pretend = 0, frame = 0
 3725              		@ frame_needed = 0, uses_anonymous_args = 0
 3726 0000 70B5     		push	{r4, r5, r6, lr}
 3727 0002 82B0     		sub	sp, sp, #8
 3728              		.syntax unified
 3729              	@ 209 "Drivers/CMSIS/Include/cmsis_gcc.h" 1
 3730 0004 EFF30583 		MRS r3, ipsr
 3731              	@ 0 "" 2
 3732              		.thumb
 3733              		.syntax unified
 3734 0008 002B     		cmp	r3, #0
 3735 000a 44D1     		bne	.L664
 3736 000c 1446     		mov	r4, r2
 3737              		.syntax unified
 3738              	@ 386 "Drivers/CMSIS/Include/cmsis_gcc.h" 1
 3739 000e EFF31083 		MRS r3, primask
 3740              	@ 0 "" 2
 3741              		.thumb
 3742              		.syntax unified
 3743 0012 13B9     		cbnz	r3, .L657
 3744              		.syntax unified
 3745              	@ 465 "Drivers/CMSIS/Include/cmsis_gcc.h" 1
 3746 0014 EFF31183 		MRS r3, basepri
 3747              	@ 0 "" 2
 3748              		.thumb
 3749              		.syntax unified
 3750 0018 1BB1     		cbz	r3, .L658
 3751              	.L657:
 3752 001a 254B     		ldr	r3, .L677
 3753 001c 1B68     		ldr	r3, [r3]
 3754 001e 022B     		cmp	r3, #2
 3755 0020 3DD0     		beq	.L665
 3756              	.L658:
 3757 0022 0028     		cmp	r0, #0
ARM GAS  /tmp/ccG9f0RW.s 			page 65


 3758 0024 3DD0     		beq	.L666
 3759 0026 0029     		cmp	r1, #0
 3760 0028 3DD0     		beq	.L667
 3761 002a 6CB3     		cbz	r4, .L668
 3762 002c A368     		ldr	r3, [r4, #8]
 3763 002e 4BB1     		cbz	r3, .L660
 3764 0030 E268     		ldr	r2, [r4, #12]
 3765 0032 4F2A     		cmp	r2, #79
 3766 0034 06D9     		bls	.L660
 3767 0036 2269     		ldr	r2, [r4, #16]
 3768 0038 22B1     		cbz	r2, .L660
 3769 003a 6669     		ldr	r6, [r4, #20]
 3770 003c 01FB00F5 		mul	r5, r1, r0
 3771 0040 AE42     		cmp	r6, r5
 3772 0042 1BD2     		bcs	.L661
 3773              	.L660:
 3774 0044 73B1     		cbz	r3, .L675
 3775 0046 4FF0FF33 		mov	r3, #-1
 3776              	.L659:
 3777 004a 73BB     		cbnz	r3, .L673
 3778 004c 0022     		movs	r2, #0
 3779 004e FFF7FEFF 		bl	xQueueGenericCreate
 3780 0052 0546     		mov	r5, r0
 3781              	.L662:
 3782 0054 05B3     		cbz	r5, .L655
 3783 0056 04B1     		cbz	r4, .L663
 3784 0058 2468     		ldr	r4, [r4]
 3785              	.L663:
 3786 005a 2146     		mov	r1, r4
 3787 005c 2846     		mov	r0, r5
 3788 005e FFF7FEFF 		bl	vQueueAddToRegistry
 3789 0062 19E0     		b	.L655
 3790              	.L675:
 3791 0064 E368     		ldr	r3, [r4, #12]
 3792 0066 8BB9     		cbnz	r3, .L670
 3793 0068 2369     		ldr	r3, [r4, #16]
 3794 006a 13B1     		cbz	r3, .L676
 3795 006c 4FF0FF33 		mov	r3, #-1
 3796 0070 EBE7     		b	.L659
 3797              	.L676:
 3798 0072 6369     		ldr	r3, [r4, #20]
 3799 0074 6BB1     		cbz	r3, .L672
 3800 0076 4FF0FF33 		mov	r3, #-1
 3801 007a E6E7     		b	.L659
 3802              	.L661:
 3803 007c 0025     		movs	r5, #0
 3804 007e 0095     		str	r5, [sp]
 3805 0080 FFF7FEFF 		bl	xQueueGenericCreateStatic
 3806 0084 0546     		mov	r5, r0
 3807 0086 E5E7     		b	.L662
 3808              	.L668:
 3809 0088 0023     		movs	r3, #0
 3810 008a DEE7     		b	.L659
 3811              	.L670:
 3812 008c 4FF0FF33 		mov	r3, #-1
 3813 0090 DBE7     		b	.L659
 3814              	.L672:
ARM GAS  /tmp/ccG9f0RW.s 			page 66


 3815 0092 0023     		movs	r3, #0
 3816 0094 D9E7     		b	.L659
 3817              	.L664:
 3818 0096 0025     		movs	r5, #0
 3819              	.L655:
 3820 0098 2846     		mov	r0, r5
 3821 009a 02B0     		add	sp, sp, #8
 3822              		@ sp needed
 3823 009c 70BD     		pop	{r4, r5, r6, pc}
 3824              	.L665:
 3825 009e 0025     		movs	r5, #0
 3826 00a0 FAE7     		b	.L655
 3827              	.L666:
 3828 00a2 0025     		movs	r5, #0
 3829 00a4 F8E7     		b	.L655
 3830              	.L667:
 3831 00a6 0025     		movs	r5, #0
 3832 00a8 F6E7     		b	.L655
 3833              	.L673:
 3834 00aa 0025     		movs	r5, #0
 3835 00ac F4E7     		b	.L655
 3836              	.L678:
 3837 00ae 00BF     		.align	2
 3838              	.L677:
 3839 00b0 00000000 		.word	.LANCHOR0
 3841              		.section	.text.osMessageQueuePut,"ax",%progbits
 3842              		.align	1
 3843              		.global	osMessageQueuePut
 3844              		.syntax unified
 3845              		.thumb
 3846              		.thumb_func
 3847              		.fpu fpv4-sp-d16
 3849              	osMessageQueuePut:
 3850              		@ args = 0, pretend = 0, frame = 8
 3851              		@ frame_needed = 0, uses_anonymous_args = 0
 3852 0000 10B5     		push	{r4, lr}
 3853 0002 82B0     		sub	sp, sp, #8
 3854 0004 1C46     		mov	r4, r3
 3855              		.syntax unified
 3856              	@ 209 "Drivers/CMSIS/Include/cmsis_gcc.h" 1
 3857 0006 EFF30583 		MRS r3, ipsr
 3858              	@ 0 "" 2
 3859              		.thumb
 3860              		.syntax unified
 3861 000a ABB9     		cbnz	r3, .L680
 3862              		.syntax unified
 3863              	@ 386 "Drivers/CMSIS/Include/cmsis_gcc.h" 1
 3864 000c EFF31083 		MRS r3, primask
 3865              	@ 0 "" 2
 3866              		.thumb
 3867              		.syntax unified
 3868 0010 13B9     		cbnz	r3, .L681
 3869              		.syntax unified
 3870              	@ 465 "Drivers/CMSIS/Include/cmsis_gcc.h" 1
 3871 0012 EFF31183 		MRS r3, basepri
 3872              	@ 0 "" 2
 3873              		.thumb
ARM GAS  /tmp/ccG9f0RW.s 			page 67


 3874              		.syntax unified
 3875 0016 1BB1     		cbz	r3, .L682
 3876              	.L681:
 3877 0018 1E4B     		ldr	r3, .L693
 3878 001a 1B68     		ldr	r3, [r3]
 3879 001c 022B     		cmp	r3, #2
 3880 001e 0BD0     		beq	.L680
 3881              	.L682:
 3882 0020 68B3     		cbz	r0, .L688
 3883 0022 79B3     		cbz	r1, .L689
 3884 0024 0023     		movs	r3, #0
 3885 0026 2246     		mov	r2, r4
 3886 0028 FFF7FEFF 		bl	xQueueGenericSend
 3887 002c 0128     		cmp	r0, #1
 3888 002e 2CD0     		beq	.L690
 3889 0030 6CB3     		cbz	r4, .L691
 3890 0032 6FF00100 		mvn	r0, #1
 3891 0036 14E0     		b	.L679
 3892              	.L680:
 3893 0038 A8B1     		cbz	r0, .L684
 3894 003a B9B1     		cbz	r1, .L685
 3895 003c CCB9     		cbnz	r4, .L686
 3896 003e 0023     		movs	r3, #0
 3897 0040 0193     		str	r3, [sp, #4]
 3898 0042 01AA     		add	r2, sp, #4
 3899 0044 FFF7FEFF 		bl	xQueueGenericSendFromISR
 3900 0048 0128     		cmp	r0, #1
 3901 004a 15D1     		bne	.L687
 3902 004c 0198     		ldr	r0, [sp, #4]
 3903 004e 40B1     		cbz	r0, .L679
 3904 0050 114B     		ldr	r3, .L693+4
 3905 0052 4FF08052 		mov	r2, #268435456
 3906 0056 1A60     		str	r2, [r3]
 3907              		.syntax unified
 3908              	@ 1670 "Middlewares/Third_Party/FreeRTOS/Source/CMSIS_RTOS_V2/cmsis_os2.c" 1
 3909 0058 BFF34F8F 		dsb
 3910              	@ 0 "" 2
 3911              	@ 1670 "Middlewares/Third_Party/FreeRTOS/Source/CMSIS_RTOS_V2/cmsis_os2.c" 1
 3912 005c BFF36F8F 		isb
 3913              	@ 0 "" 2
 3914              		.thumb
 3915              		.syntax unified
 3916 0060 0020     		movs	r0, #0
 3917              	.L679:
 3918 0062 02B0     		add	sp, sp, #8
 3919              		@ sp needed
 3920 0064 10BD     		pop	{r4, pc}
 3921              	.L684:
 3922 0066 6FF00300 		mvn	r0, #3
 3923 006a FAE7     		b	.L679
 3924              	.L685:
 3925 006c 6FF00300 		mvn	r0, #3
 3926 0070 F7E7     		b	.L679
 3927              	.L686:
 3928 0072 6FF00300 		mvn	r0, #3
 3929 0076 F4E7     		b	.L679
 3930              	.L687:
ARM GAS  /tmp/ccG9f0RW.s 			page 68


 3931 0078 6FF00200 		mvn	r0, #2
 3932 007c F1E7     		b	.L679
 3933              	.L688:
 3934 007e 6FF00300 		mvn	r0, #3
 3935 0082 EEE7     		b	.L679
 3936              	.L689:
 3937 0084 6FF00300 		mvn	r0, #3
 3938 0088 EBE7     		b	.L679
 3939              	.L690:
 3940 008a 0020     		movs	r0, #0
 3941 008c E9E7     		b	.L679
 3942              	.L691:
 3943 008e 6FF00200 		mvn	r0, #2
 3944 0092 E6E7     		b	.L679
 3945              	.L694:
 3946              		.align	2
 3947              	.L693:
 3948 0094 00000000 		.word	.LANCHOR0
 3949 0098 04ED00E0 		.word	-536810236
 3951              		.section	.text.osMessageQueueGet,"ax",%progbits
 3952              		.align	1
 3953              		.global	osMessageQueueGet
 3954              		.syntax unified
 3955              		.thumb
 3956              		.thumb_func
 3957              		.fpu fpv4-sp-d16
 3959              	osMessageQueueGet:
 3960              		@ args = 0, pretend = 0, frame = 8
 3961              		@ frame_needed = 0, uses_anonymous_args = 0
 3962 0000 10B5     		push	{r4, lr}
 3963 0002 82B0     		sub	sp, sp, #8
 3964 0004 1C46     		mov	r4, r3
 3965              		.syntax unified
 3966              	@ 209 "Drivers/CMSIS/Include/cmsis_gcc.h" 1
 3967 0006 EFF30583 		MRS r3, ipsr
 3968              	@ 0 "" 2
 3969              		.thumb
 3970              		.syntax unified
 3971 000a A3B9     		cbnz	r3, .L696
 3972              		.syntax unified
 3973              	@ 386 "Drivers/CMSIS/Include/cmsis_gcc.h" 1
 3974 000c EFF31083 		MRS r3, primask
 3975              	@ 0 "" 2
 3976              		.thumb
 3977              		.syntax unified
 3978 0010 13B9     		cbnz	r3, .L697
 3979              		.syntax unified
 3980              	@ 465 "Drivers/CMSIS/Include/cmsis_gcc.h" 1
 3981 0012 EFF31183 		MRS r3, basepri
 3982              	@ 0 "" 2
 3983              		.thumb
 3984              		.syntax unified
 3985 0016 1BB1     		cbz	r3, .L698
 3986              	.L697:
 3987 0018 1E4B     		ldr	r3, .L709
 3988 001a 1B68     		ldr	r3, [r3]
 3989 001c 022B     		cmp	r3, #2
ARM GAS  /tmp/ccG9f0RW.s 			page 69


 3990 001e 0AD0     		beq	.L696
 3991              	.L698:
 3992 0020 60B3     		cbz	r0, .L704
 3993 0022 71B3     		cbz	r1, .L705
 3994 0024 2246     		mov	r2, r4
 3995 0026 FFF7FEFF 		bl	xQueueReceive
 3996 002a 0128     		cmp	r0, #1
 3997 002c 2CD0     		beq	.L706
 3998 002e 6CB3     		cbz	r4, .L707
 3999 0030 6FF00100 		mvn	r0, #1
 4000 0034 14E0     		b	.L695
 4001              	.L696:
 4002 0036 A8B1     		cbz	r0, .L700
 4003 0038 B9B1     		cbz	r1, .L701
 4004 003a CCB9     		cbnz	r4, .L702
 4005 003c 0023     		movs	r3, #0
 4006 003e 0193     		str	r3, [sp, #4]
 4007 0040 01AA     		add	r2, sp, #4
 4008 0042 FFF7FEFF 		bl	xQueueReceiveFromISR
 4009 0046 0128     		cmp	r0, #1
 4010 0048 15D1     		bne	.L703
 4011 004a 0198     		ldr	r0, [sp, #4]
 4012 004c 40B1     		cbz	r0, .L695
 4013 004e 124B     		ldr	r3, .L709+4
 4014 0050 4FF08052 		mov	r2, #268435456
 4015 0054 1A60     		str	r2, [r3]
 4016              		.syntax unified
 4017              	@ 1711 "Middlewares/Third_Party/FreeRTOS/Source/CMSIS_RTOS_V2/cmsis_os2.c" 1
 4018 0056 BFF34F8F 		dsb
 4019              	@ 0 "" 2
 4020              	@ 1711 "Middlewares/Third_Party/FreeRTOS/Source/CMSIS_RTOS_V2/cmsis_os2.c" 1
 4021 005a BFF36F8F 		isb
 4022              	@ 0 "" 2
 4023              		.thumb
 4024              		.syntax unified
 4025 005e 0020     		movs	r0, #0
 4026              	.L695:
 4027 0060 02B0     		add	sp, sp, #8
 4028              		@ sp needed
 4029 0062 10BD     		pop	{r4, pc}
 4030              	.L700:
 4031 0064 6FF00300 		mvn	r0, #3
 4032 0068 FAE7     		b	.L695
 4033              	.L701:
 4034 006a 6FF00300 		mvn	r0, #3
 4035 006e F7E7     		b	.L695
 4036              	.L702:
 4037 0070 6FF00300 		mvn	r0, #3
 4038 0074 F4E7     		b	.L695
 4039              	.L703:
 4040 0076 6FF00200 		mvn	r0, #2
 4041 007a F1E7     		b	.L695
 4042              	.L704:
 4043 007c 6FF00300 		mvn	r0, #3
 4044 0080 EEE7     		b	.L695
 4045              	.L705:
 4046 0082 6FF00300 		mvn	r0, #3
ARM GAS  /tmp/ccG9f0RW.s 			page 70


 4047 0086 EBE7     		b	.L695
 4048              	.L706:
 4049 0088 0020     		movs	r0, #0
 4050 008a E9E7     		b	.L695
 4051              	.L707:
 4052 008c 6FF00200 		mvn	r0, #2
 4053 0090 E6E7     		b	.L695
 4054              	.L710:
 4055 0092 00BF     		.align	2
 4056              	.L709:
 4057 0094 00000000 		.word	.LANCHOR0
 4058 0098 04ED00E0 		.word	-536810236
 4060              		.section	.text.osMessageQueueGetCapacity,"ax",%progbits
 4061              		.align	1
 4062              		.global	osMessageQueueGetCapacity
 4063              		.syntax unified
 4064              		.thumb
 4065              		.thumb_func
 4066              		.fpu fpv4-sp-d16
 4068              	osMessageQueueGetCapacity:
 4069              		@ args = 0, pretend = 0, frame = 0
 4070              		@ frame_needed = 0, uses_anonymous_args = 0
 4071              		@ link register save eliminated.
 4072 0000 08B1     		cbz	r0, .L713
 4073 0002 C06B     		ldr	r0, [r0, #60]
 4074 0004 7047     		bx	lr
 4075              	.L713:
 4076 0006 0020     		movs	r0, #0
 4077 0008 7047     		bx	lr
 4079              		.section	.text.osMessageQueueGetMsgSize,"ax",%progbits
 4080              		.align	1
 4081              		.global	osMessageQueueGetMsgSize
 4082              		.syntax unified
 4083              		.thumb
 4084              		.thumb_func
 4085              		.fpu fpv4-sp-d16
 4087              	osMessageQueueGetMsgSize:
 4088              		@ args = 0, pretend = 0, frame = 0
 4089              		@ frame_needed = 0, uses_anonymous_args = 0
 4090              		@ link register save eliminated.
 4091 0000 08B1     		cbz	r0, .L716
 4092 0002 006C     		ldr	r0, [r0, #64]
 4093 0004 7047     		bx	lr
 4094              	.L716:
 4095 0006 0020     		movs	r0, #0
 4096 0008 7047     		bx	lr
 4098              		.section	.text.osMessageQueueGetCount,"ax",%progbits
 4099              		.align	1
 4100              		.global	osMessageQueueGetCount
 4101              		.syntax unified
 4102              		.thumb
 4103              		.thumb_func
 4104              		.fpu fpv4-sp-d16
 4106              	osMessageQueueGetCount:
 4107              		@ args = 0, pretend = 0, frame = 0
 4108              		@ frame_needed = 0, uses_anonymous_args = 0
 4109 0000 98B1     		cbz	r0, .L722
ARM GAS  /tmp/ccG9f0RW.s 			page 71


 4110 0002 08B5     		push	{r3, lr}
 4111              		.syntax unified
 4112              	@ 209 "Drivers/CMSIS/Include/cmsis_gcc.h" 1
 4113 0004 EFF30583 		MRS r3, ipsr
 4114              	@ 0 "" 2
 4115              		.thumb
 4116              		.syntax unified
 4117 0008 63B9     		cbnz	r3, .L719
 4118              		.syntax unified
 4119              	@ 386 "Drivers/CMSIS/Include/cmsis_gcc.h" 1
 4120 000a EFF31083 		MRS r3, primask
 4121              	@ 0 "" 2
 4122              		.thumb
 4123              		.syntax unified
 4124 000e 13B9     		cbnz	r3, .L720
 4125              		.syntax unified
 4126              	@ 465 "Drivers/CMSIS/Include/cmsis_gcc.h" 1
 4127 0010 EFF31183 		MRS r3, basepri
 4128              	@ 0 "" 2
 4129              		.thumb
 4130              		.syntax unified
 4131 0014 1BB1     		cbz	r3, .L721
 4132              	.L720:
 4133 0016 064B     		ldr	r3, .L727
 4134 0018 1B68     		ldr	r3, [r3]
 4135 001a 022B     		cmp	r3, #2
 4136 001c 02D0     		beq	.L719
 4137              	.L721:
 4138 001e FFF7FEFF 		bl	uxQueueMessagesWaiting
 4139 0022 01E0     		b	.L717
 4140              	.L719:
 4141 0024 FFF7FEFF 		bl	uxQueueMessagesWaitingFromISR
 4142              	.L717:
 4143 0028 08BD     		pop	{r3, pc}
 4144              	.L722:
 4145 002a 0020     		movs	r0, #0
 4146 002c 7047     		bx	lr
 4147              	.L728:
 4148 002e 00BF     		.align	2
 4149              	.L727:
 4150 0030 00000000 		.word	.LANCHOR0
 4152              		.section	.text.osMessageQueueGetSpace,"ax",%progbits
 4153              		.align	1
 4154              		.global	osMessageQueueGetSpace
 4155              		.syntax unified
 4156              		.thumb
 4157              		.thumb_func
 4158              		.fpu fpv4-sp-d16
 4160              	osMessageQueueGetSpace:
 4161              		@ args = 0, pretend = 0, frame = 0
 4162              		@ frame_needed = 0, uses_anonymous_args = 0
 4163 0000 10B3     		cbz	r0, .L734
 4164 0002 08B5     		push	{r3, lr}
 4165 0004 0246     		mov	r2, r0
 4166              		.syntax unified
 4167              	@ 209 "Drivers/CMSIS/Include/cmsis_gcc.h" 1
 4168 0006 EFF30583 		MRS r3, ipsr
ARM GAS  /tmp/ccG9f0RW.s 			page 72


 4169              	@ 0 "" 2
 4170              		.thumb
 4171              		.syntax unified
 4172 000a 6BB9     		cbnz	r3, .L731
 4173              		.syntax unified
 4174              	@ 386 "Drivers/CMSIS/Include/cmsis_gcc.h" 1
 4175 000c EFF31083 		MRS r3, primask
 4176              	@ 0 "" 2
 4177              		.thumb
 4178              		.syntax unified
 4179 0010 13B9     		cbnz	r3, .L732
 4180              		.syntax unified
 4181              	@ 465 "Drivers/CMSIS/Include/cmsis_gcc.h" 1
 4182 0012 EFF31183 		MRS r3, basepri
 4183              	@ 0 "" 2
 4184              		.thumb
 4185              		.syntax unified
 4186 0016 1BB1     		cbz	r3, .L733
 4187              	.L732:
 4188 0018 0C4B     		ldr	r3, .L739
 4189 001a 1B68     		ldr	r3, [r3]
 4190 001c 022B     		cmp	r3, #2
 4191 001e 03D0     		beq	.L731
 4192              	.L733:
 4193 0020 1046     		mov	r0, r2
 4194 0022 FFF7FEFF 		bl	uxQueueSpacesAvailable
 4195 0026 0EE0     		b	.L729
 4196              	.L731:
 4197              		.syntax unified
 4198              	@ 211 "Middlewares/Third_Party/FreeRTOS/Source/portable/GCC/ARM_CM4F/portmacro.h" 1
 4199 0028 EFF31181 			mrs r1, basepri											
 4200 002c 4FF05003 		mov r3, #80												
 4201 0030 83F31188 		msr basepri, r3											
 4202 0034 BFF36F8F 		isb														
 4203 0038 BFF34F8F 		dsb														
 4204              	
 4205              	@ 0 "" 2
 4206              		.thumb
 4207              		.syntax unified
 4208 003c D36B     		ldr	r3, [r2, #60]
 4209 003e 906B     		ldr	r0, [r2, #56]
 4210 0040 181A     		subs	r0, r3, r0
 4211              		.syntax unified
 4212              	@ 229 "Middlewares/Third_Party/FreeRTOS/Source/portable/GCC/ARM_CM4F/portmacro.h" 1
 4213 0042 81F31188 			msr basepri, r1	
 4214              	@ 0 "" 2
 4215              		.thumb
 4216              		.syntax unified
 4217              	.L729:
 4218 0046 08BD     		pop	{r3, pc}
 4219              	.L734:
 4220 0048 0020     		movs	r0, #0
 4221 004a 7047     		bx	lr
 4222              	.L740:
 4223              		.align	2
 4224              	.L739:
 4225 004c 00000000 		.word	.LANCHOR0
ARM GAS  /tmp/ccG9f0RW.s 			page 73


 4227              		.section	.text.osMessageQueueReset,"ax",%progbits
 4228              		.align	1
 4229              		.global	osMessageQueueReset
 4230              		.syntax unified
 4231              		.thumb
 4232              		.thumb_func
 4233              		.fpu fpv4-sp-d16
 4235              	osMessageQueueReset:
 4236              		@ args = 0, pretend = 0, frame = 0
 4237              		@ frame_needed = 0, uses_anonymous_args = 0
 4238 0000 08B5     		push	{r3, lr}
 4239              		.syntax unified
 4240              	@ 209 "Drivers/CMSIS/Include/cmsis_gcc.h" 1
 4241 0002 EFF30583 		MRS r3, ipsr
 4242              	@ 0 "" 2
 4243              		.thumb
 4244              		.syntax unified
 4245 0006 7BB9     		cbnz	r3, .L745
 4246              		.syntax unified
 4247              	@ 386 "Drivers/CMSIS/Include/cmsis_gcc.h" 1
 4248 0008 EFF31083 		MRS r3, primask
 4249              	@ 0 "" 2
 4250              		.thumb
 4251              		.syntax unified
 4252 000c 13B9     		cbnz	r3, .L743
 4253              		.syntax unified
 4254              	@ 465 "Drivers/CMSIS/Include/cmsis_gcc.h" 1
 4255 000e EFF31183 		MRS r3, basepri
 4256              	@ 0 "" 2
 4257              		.thumb
 4258              		.syntax unified
 4259 0012 1BB1     		cbz	r3, .L744
 4260              	.L743:
 4261 0014 094B     		ldr	r3, .L749
 4262 0016 1B68     		ldr	r3, [r3]
 4263 0018 022B     		cmp	r3, #2
 4264 001a 08D0     		beq	.L746
 4265              	.L744:
 4266 001c 50B1     		cbz	r0, .L747
 4267 001e 0021     		movs	r1, #0
 4268 0020 FFF7FEFF 		bl	xQueueGenericReset
 4269 0024 0020     		movs	r0, #0
 4270              	.L741:
 4271 0026 08BD     		pop	{r3, pc}
 4272              	.L745:
 4273 0028 6FF00500 		mvn	r0, #5
 4274 002c FBE7     		b	.L741
 4275              	.L746:
 4276 002e 6FF00500 		mvn	r0, #5
 4277 0032 F8E7     		b	.L741
 4278              	.L747:
 4279 0034 6FF00300 		mvn	r0, #3
 4280 0038 F5E7     		b	.L741
 4281              	.L750:
 4282 003a 00BF     		.align	2
 4283              	.L749:
 4284 003c 00000000 		.word	.LANCHOR0
ARM GAS  /tmp/ccG9f0RW.s 			page 74


 4286              		.section	.text.osMessageQueueDelete,"ax",%progbits
 4287              		.align	1
 4288              		.global	osMessageQueueDelete
 4289              		.syntax unified
 4290              		.thumb
 4291              		.thumb_func
 4292              		.fpu fpv4-sp-d16
 4294              	osMessageQueueDelete:
 4295              		@ args = 0, pretend = 0, frame = 0
 4296              		@ frame_needed = 0, uses_anonymous_args = 0
 4297              		.syntax unified
 4298              	@ 209 "Drivers/CMSIS/Include/cmsis_gcc.h" 1
 4299 0000 EFF30583 		MRS r3, ipsr
 4300              	@ 0 "" 2
 4301              		.thumb
 4302              		.syntax unified
 4303 0004 9BB9     		cbnz	r3, .L755
 4304              		.syntax unified
 4305              	@ 386 "Drivers/CMSIS/Include/cmsis_gcc.h" 1
 4306 0006 EFF31083 		MRS r3, primask
 4307              	@ 0 "" 2
 4308              		.thumb
 4309              		.syntax unified
 4310 000a 13B9     		cbnz	r3, .L753
 4311              		.syntax unified
 4312              	@ 465 "Drivers/CMSIS/Include/cmsis_gcc.h" 1
 4313 000c EFF31183 		MRS r3, basepri
 4314              	@ 0 "" 2
 4315              		.thumb
 4316              		.syntax unified
 4317 0010 1BB1     		cbz	r3, .L754
 4318              	.L753:
 4319 0012 0B4B     		ldr	r3, .L762
 4320 0014 1B68     		ldr	r3, [r3]
 4321 0016 022B     		cmp	r3, #2
 4322 0018 0CD0     		beq	.L756
 4323              	.L754:
 4324 001a 70B1     		cbz	r0, .L757
 4325 001c 10B5     		push	{r4, lr}
 4326 001e 0446     		mov	r4, r0
 4327 0020 FFF7FEFF 		bl	vQueueUnregisterQueue
 4328 0024 2046     		mov	r0, r4
 4329 0026 FFF7FEFF 		bl	vQueueDelete
 4330 002a 0020     		movs	r0, #0
 4331 002c 10BD     		pop	{r4, pc}
 4332              	.L755:
 4333 002e 6FF00500 		mvn	r0, #5
 4334 0032 7047     		bx	lr
 4335              	.L756:
 4336 0034 6FF00500 		mvn	r0, #5
 4337 0038 7047     		bx	lr
 4338              	.L757:
 4339 003a 6FF00300 		mvn	r0, #3
 4340 003e 7047     		bx	lr
 4341              	.L763:
 4342              		.align	2
 4343              	.L762:
ARM GAS  /tmp/ccG9f0RW.s 			page 75


 4344 0040 00000000 		.word	.LANCHOR0
 4346              		.section	.text.vApplicationGetIdleTaskMemory,"ax",%progbits
 4347              		.align	1
 4348              		.global	vApplicationGetIdleTaskMemory
 4349              		.syntax unified
 4350              		.thumb
 4351              		.thumb_func
 4352              		.fpu fpv4-sp-d16
 4354              	vApplicationGetIdleTaskMemory:
 4355              		@ args = 0, pretend = 0, frame = 0
 4356              		@ frame_needed = 0, uses_anonymous_args = 0
 4357              		@ link register save eliminated.
 4358 0000 034B     		ldr	r3, .L765
 4359 0002 0360     		str	r3, [r0]
 4360 0004 034B     		ldr	r3, .L765+4
 4361 0006 0B60     		str	r3, [r1]
 4362 0008 8023     		movs	r3, #128
 4363 000a 1360     		str	r3, [r2]
 4364 000c 7047     		bx	lr
 4365              	.L766:
 4366 000e 00BF     		.align	2
 4367              	.L765:
 4368 0010 00000000 		.word	.LANCHOR1
 4369 0014 00000000 		.word	.LANCHOR2
 4371              		.section	.text.vApplicationGetTimerTaskMemory,"ax",%progbits
 4372              		.align	1
 4373              		.global	vApplicationGetTimerTaskMemory
 4374              		.syntax unified
 4375              		.thumb
 4376              		.thumb_func
 4377              		.fpu fpv4-sp-d16
 4379              	vApplicationGetTimerTaskMemory:
 4380              		@ args = 0, pretend = 0, frame = 0
 4381              		@ frame_needed = 0, uses_anonymous_args = 0
 4382              		@ link register save eliminated.
 4383 0000 034B     		ldr	r3, .L768
 4384 0002 0360     		str	r3, [r0]
 4385 0004 034B     		ldr	r3, .L768+4
 4386 0006 0B60     		str	r3, [r1]
 4387 0008 4FF48073 		mov	r3, #256
 4388 000c 1360     		str	r3, [r2]
 4389 000e 7047     		bx	lr
 4390              	.L769:
 4391              		.align	2
 4392              	.L768:
 4393 0010 00000000 		.word	.LANCHOR3
 4394 0014 00000000 		.word	.LANCHOR4
 4396              		.section	.bss.Idle_Stack,"aw",%nobits
 4397              		.align	2
 4398              		.set	.LANCHOR2,. + 0
 4401              	Idle_Stack:
 4402 0000 00000000 		.space	512
 4402      00000000 
 4402      00000000 
 4402      00000000 
 4402      00000000 
 4403              		.section	.bss.Idle_TCB,"aw",%nobits
ARM GAS  /tmp/ccG9f0RW.s 			page 76


 4404              		.align	2
 4405              		.set	.LANCHOR1,. + 0
 4408              	Idle_TCB:
 4409 0000 00000000 		.space	100
 4409      00000000 
 4409      00000000 
 4409      00000000 
 4409      00000000 
 4410              		.section	.bss.KernelState,"aw",%nobits
 4411              		.align	2
 4412              		.set	.LANCHOR0,. + 0
 4415              	KernelState:
 4416 0000 00000000 		.space	4
 4417              		.section	.bss.Timer_Stack,"aw",%nobits
 4418              		.align	2
 4419              		.set	.LANCHOR4,. + 0
 4422              	Timer_Stack:
 4423 0000 00000000 		.space	1024
 4423      00000000 
 4423      00000000 
 4423      00000000 
 4423      00000000 
 4424              		.section	.bss.Timer_TCB,"aw",%nobits
 4425              		.align	2
 4426              		.set	.LANCHOR3,. + 0
 4429              	Timer_TCB:
 4430 0000 00000000 		.space	100
 4430      00000000 
 4430      00000000 
 4430      00000000 
 4430      00000000 
 4431              		.section	.rodata.osKernelGetInfo.str1.4,"aMS",%progbits,1
 4432              		.align	2
 4433              	.LC0:
 4434 0000 46726565 		.ascii	"FreeRTOS V10.2.0\000"
 4434      52544F53 
 4434      20563130 
 4434      2E322E30 
 4434      00
 4435              		.ident	"GCC: (GNU Tools for Arm Embedded Processors 8-2019-q3-update) 8.3.1 20190703 (release) [gc
ARM GAS  /tmp/ccG9f0RW.s 			page 77

