ARM GAS  /tmp/cc4Vqwyt.s 			page 1


   1              		.cpu cortex-m4
   2              		.eabi_attribute 27, 1
   3              		.eabi_attribute 28, 1
   4              		.eabi_attribute 20, 1
   5              		.eabi_attribute 21, 1
   6              		.eabi_attribute 23, 3
   7              		.eabi_attribute 24, 1
   8              		.eabi_attribute 25, 1
   9              		.eabi_attribute 26, 1
  10              		.eabi_attribute 30, 1
  11              		.eabi_attribute 34, 1
  12              		.eabi_attribute 18, 4
  13              		.file	"FreeRTOS_POSIX_pthread.c"
  14              		.text
  15              		.section	.text.pthread_attr_destroy,"ax",%progbits
  16              		.align	1
  17              		.global	pthread_attr_destroy
  18              		.arch armv7e-m
  19              		.syntax unified
  20              		.thumb
  21              		.thumb_func
  22              		.fpu fpv4-sp-d16
  24              	pthread_attr_destroy:
  25              		@ args = 0, pretend = 0, frame = 0
  26              		@ frame_needed = 0, uses_anonymous_args = 0
  27              		@ link register save eliminated.
  28 0000 0020     		movs	r0, #0
  29 0002 7047     		bx	lr
  31              		.section	.text.pthread_attr_getdetachstate,"ax",%progbits
  32              		.align	1
  33              		.global	pthread_attr_getdetachstate
  34              		.syntax unified
  35              		.thumb
  36              		.thumb_func
  37              		.fpu fpv4-sp-d16
  39              	pthread_attr_getdetachstate:
  40              		@ args = 0, pretend = 0, frame = 0
  41              		@ frame_needed = 0, uses_anonymous_args = 0
  42              		@ link register save eliminated.
  43 0000 B0F90230 		ldrsh	r3, [r0, #2]
  44 0004 002B     		cmp	r3, #0
  45 0006 03DB     		blt	.L5
  46 0008 0023     		movs	r3, #0
  47 000a 0B60     		str	r3, [r1]
  48              	.L4:
  49 000c 0020     		movs	r0, #0
  50 000e 7047     		bx	lr
  51              	.L5:
  52 0010 0123     		movs	r3, #1
  53 0012 0B60     		str	r3, [r1]
  54 0014 FAE7     		b	.L4
  56              		.section	.text.pthread_attr_getschedparam,"ax",%progbits
  57              		.align	1
  58              		.global	pthread_attr_getschedparam
  59              		.syntax unified
  60              		.thumb
  61              		.thumb_func
ARM GAS  /tmp/cc4Vqwyt.s 			page 2


  62              		.fpu fpv4-sp-d16
  64              	pthread_attr_getschedparam:
  65              		@ args = 0, pretend = 0, frame = 0
  66              		@ frame_needed = 0, uses_anonymous_args = 0
  67              		@ link register save eliminated.
  68 0000 4388     		ldrh	r3, [r0, #2]
  69 0002 C3F30E03 		ubfx	r3, r3, #0, #15
  70 0006 0B60     		str	r3, [r1]
  71 0008 0020     		movs	r0, #0
  72 000a 7047     		bx	lr
  74              		.section	.text.pthread_attr_getstacksize,"ax",%progbits
  75              		.align	1
  76              		.global	pthread_attr_getstacksize
  77              		.syntax unified
  78              		.thumb
  79              		.thumb_func
  80              		.fpu fpv4-sp-d16
  82              	pthread_attr_getstacksize:
  83              		@ args = 0, pretend = 0, frame = 0
  84              		@ frame_needed = 0, uses_anonymous_args = 0
  85              		@ link register save eliminated.
  86 0000 0388     		ldrh	r3, [r0]
  87 0002 0B60     		str	r3, [r1]
  88 0004 0020     		movs	r0, #0
  89 0006 7047     		bx	lr
  91              		.section	.text.pthread_attr_init,"ax",%progbits
  92              		.align	1
  93              		.global	pthread_attr_init
  94              		.syntax unified
  95              		.thumb
  96              		.thumb_func
  97              		.fpu fpv4-sp-d16
  99              	pthread_attr_init:
 100              		@ args = 0, pretend = 0, frame = 0
 101              		@ frame_needed = 0, uses_anonymous_args = 0
 102              		@ link register save eliminated.
 103 0000 0346     		mov	r3, r0
 104 0002 024A     		ldr	r2, .L9
 105 0004 1068     		ldr	r0, [r2]
 106 0006 1860     		str	r0, [r3]	@ unaligned
 107 0008 0020     		movs	r0, #0
 108 000a 7047     		bx	lr
 109              	.L10:
 110              		.align	2
 111              	.L9:
 112 000c 00000000 		.word	.LANCHOR0
 114              		.section	.text.pthread_attr_setdetachstate,"ax",%progbits
 115              		.align	1
 116              		.global	pthread_attr_setdetachstate
 117              		.syntax unified
 118              		.thumb
 119              		.thumb_func
 120              		.fpu fpv4-sp-d16
 122              	pthread_attr_setdetachstate:
 123              		@ args = 0, pretend = 0, frame = 0
 124              		@ frame_needed = 0, uses_anonymous_args = 0
 125              		@ link register save eliminated.
ARM GAS  /tmp/cc4Vqwyt.s 			page 3


 126 0000 0129     		cmp	r1, #1
 127 0002 09D8     		bhi	.L13
 128 0004 4388     		ldrh	r3, [r0, #2]
 129 0006 C3F30E03 		ubfx	r3, r3, #0, #15
 130 000a 044A     		ldr	r2, .L14
 131 000c 02EAC131 		and	r1, r2, r1, lsl #15
 132 0010 0B43     		orrs	r3, r3, r1
 133 0012 4380     		strh	r3, [r0, #2]	@ movhi
 134 0014 0020     		movs	r0, #0
 135 0016 7047     		bx	lr
 136              	.L13:
 137 0018 1620     		movs	r0, #22
 138 001a 7047     		bx	lr
 139              	.L15:
 140              		.align	2
 141              	.L14:
 142 001c 0080FF7F 		.word	2147450880
 144              		.section	.text.pthread_attr_setschedparam,"ax",%progbits
 145              		.align	1
 146              		.global	pthread_attr_setschedparam
 147              		.syntax unified
 148              		.thumb
 149              		.thumb_func
 150              		.fpu fpv4-sp-d16
 152              	pthread_attr_setschedparam:
 153              		@ args = 0, pretend = 0, frame = 0
 154              		@ frame_needed = 0, uses_anonymous_args = 0
 155 0000 70B5     		push	{r4, r5, r6, lr}
 156 0002 0546     		mov	r5, r0
 157 0004 0C46     		mov	r4, r1
 158 0006 51B1     		cbz	r1, .L19
 159 0008 0E68     		ldr	r6, [r1]
 160 000a 0020     		movs	r0, #0
 161 000c FFF7FEFF 		bl	sched_get_priority_max
 162 0010 8642     		cmp	r6, r0
 163 0012 0EDC     		bgt	.L20
 164 0014 2368     		ldr	r3, [r4]
 165 0016 002B     		cmp	r3, #0
 166 0018 0DDB     		blt	.L21
 167 001a 0020     		movs	r0, #0
 168 001c 00E0     		b	.L17
 169              	.L19:
 170 001e 1620     		movs	r0, #22
 171              	.L17:
 172 0020 30B9     		cbnz	r0, .L16
 173 0022 6B88     		ldrh	r3, [r5, #2]
 174 0024 03F40043 		and	r3, r3, #32768
 175 0028 6B80     		strh	r3, [r5, #2]	@ movhi
 176 002a 2288     		ldrh	r2, [r4]
 177 002c 1343     		orrs	r3, r3, r2
 178 002e 6B80     		strh	r3, [r5, #2]	@ movhi
 179              	.L16:
 180 0030 70BD     		pop	{r4, r5, r6, pc}
 181              	.L20:
 182 0032 8620     		movs	r0, #134
 183 0034 FCE7     		b	.L16
 184              	.L21:
ARM GAS  /tmp/cc4Vqwyt.s 			page 4


 185 0036 8620     		movs	r0, #134
 186 0038 FAE7     		b	.L16
 188              		.section	.text.pthread_attr_setschedpolicy,"ax",%progbits
 189              		.align	1
 190              		.global	pthread_attr_setschedpolicy
 191              		.syntax unified
 192              		.thumb
 193              		.thumb_func
 194              		.fpu fpv4-sp-d16
 196              	pthread_attr_setschedpolicy:
 197              		@ args = 0, pretend = 0, frame = 0
 198              		@ frame_needed = 0, uses_anonymous_args = 0
 199              		@ link register save eliminated.
 200 0000 0020     		movs	r0, #0
 201 0002 7047     		bx	lr
 203              		.section	.text.pthread_attr_setstacksize,"ax",%progbits
 204              		.align	1
 205              		.global	pthread_attr_setstacksize
 206              		.syntax unified
 207              		.thumb
 208              		.thumb_func
 209              		.fpu fpv4-sp-d16
 211              	pthread_attr_setstacksize:
 212              		@ args = 0, pretend = 0, frame = 0
 213              		@ frame_needed = 0, uses_anonymous_args = 0
 214              		@ link register save eliminated.
 215 0000 B1F5007F 		cmp	r1, #512
 216 0004 02D3     		bcc	.L26
 217 0006 0180     		strh	r1, [r0]	@ movhi
 218 0008 0020     		movs	r0, #0
 219 000a 7047     		bx	lr
 220              	.L26:
 221 000c 1620     		movs	r0, #22
 222 000e 7047     		bx	lr
 224              		.section	.text.pthread_create,"ax",%progbits
 225              		.align	1
 226              		.global	pthread_create
 227              		.syntax unified
 228              		.thumb
 229              		.thumb_func
 230              		.fpu fpv4-sp-d16
 232              	pthread_create:
 233              		@ args = 0, pretend = 0, frame = 0
 234              		@ frame_needed = 0, uses_anonymous_args = 0
 235 0000 2DE9F043 		push	{r4, r5, r6, r7, r8, r9, lr}
 236 0004 83B0     		sub	sp, sp, #12
 237 0006 8146     		mov	r9, r0
 238 0008 0D46     		mov	r5, r1
 239 000a 1746     		mov	r7, r2
 240 000c 9846     		mov	r8, r3
 241 000e B420     		movs	r0, #180
 242 0010 FFF7FEFF 		bl	pvPortMalloc
 243 0014 0446     		mov	r4, r0
 244 0016 28B3     		cbz	r0, .L34
 245 0018 85B1     		cbz	r5, .L37
 246 001a 2868     		ldr	r0, [r5]	@ unaligned
 247 001c 2060     		str	r0, [r4]
ARM GAS  /tmp/cc4Vqwyt.s 			page 5


 248              	.L30:
 249 001e 6388     		ldrh	r3, [r4, #2]
 250 0020 C3F30E06 		ubfx	r6, r3, #0, #15
 251 0024 C4F80880 		str	r8, [r4, #8]
 252 0028 6760     		str	r7, [r4, #4]
 253 002a 13F4004F 		tst	r3, #32768
 254 002e 09D1     		bne	.L38
 255 0030 0025     		movs	r5, #0
 256              	.L28:
 257 0032 D5B1     		cbz	r5, .L39
 258              	.L27:
 259 0034 2846     		mov	r0, r5
 260 0036 03B0     		add	sp, sp, #12
 261              		@ sp needed
 262 0038 BDE8F083 		pop	{r4, r5, r6, r7, r8, r9, pc}
 263              	.L37:
 264 003c 194B     		ldr	r3, .L40
 265 003e 1B68     		ldr	r3, [r3]
 266 0040 0360     		str	r3, [r0]
 267 0042 ECE7     		b	.L30
 268              	.L38:
 269 0044 04F16001 		add	r1, r4, #96
 270 0048 0120     		movs	r0, #1
 271 004a FFF7FEFF 		bl	xQueueCreateMutexStatic
 272 004e 0323     		movs	r3, #3
 273 0050 0093     		str	r3, [sp]
 274 0052 04F11003 		add	r3, r4, #16
 275 0056 0022     		movs	r2, #0
 276 0058 1146     		mov	r1, r2
 277 005a 0120     		movs	r0, #1
 278 005c FFF7FEFF 		bl	xQueueGenericCreateStatic
 279 0060 0025     		movs	r5, #0
 280 0062 E6E7     		b	.L28
 281              	.L34:
 282 0064 0026     		movs	r6, #0
 283 0066 0B25     		movs	r5, #11
 284 0068 E3E7     		b	.L28
 285              	.L39:
 286 006a FFF7FEFF 		bl	vTaskSuspendAll
 287 006e 2346     		mov	r3, r4
 288 0070 33F80C2B 		ldrh	r2, [r3], #12
 289 0074 0193     		str	r3, [sp, #4]
 290 0076 0096     		str	r6, [sp]
 291 0078 2346     		mov	r3, r4
 292 007a 9208     		lsrs	r2, r2, #2
 293 007c 0A49     		ldr	r1, .L40+4
 294 007e 0B48     		ldr	r0, .L40+8
 295 0080 FFF7FEFF 		bl	xTaskCreate
 296 0084 0128     		cmp	r0, #1
 297 0086 06D0     		beq	.L32
 298 0088 2046     		mov	r0, r4
 299 008a FFF7FEFF 		bl	vPortFree
 300 008e 0B25     		movs	r5, #11
 301              	.L33:
 302 0090 FFF7FEFF 		bl	xTaskResumeAll
 303 0094 CEE7     		b	.L27
 304              	.L32:
ARM GAS  /tmp/cc4Vqwyt.s 			page 6


 305 0096 2146     		mov	r1, r4
 306 0098 E068     		ldr	r0, [r4, #12]
 307 009a FFF7FEFF 		bl	vTaskSetApplicationTaskTag
 308 009e C9F80040 		str	r4, [r9]
 309 00a2 F5E7     		b	.L33
 310              	.L41:
 311              		.align	2
 312              	.L40:
 313 00a4 00000000 		.word	.LANCHOR0
 314 00a8 00000000 		.word	.LC0
 315 00ac 00000000 		.word	prvRunThread
 317              		.section	.text.pthread_getschedparam,"ax",%progbits
 318              		.align	1
 319              		.global	pthread_getschedparam
 320              		.syntax unified
 321              		.thumb
 322              		.thumb_func
 323              		.fpu fpv4-sp-d16
 325              	pthread_getschedparam:
 326              		@ args = 0, pretend = 0, frame = 0
 327              		@ frame_needed = 0, uses_anonymous_args = 0
 328              		@ link register save eliminated.
 329 0000 10B4     		push	{r4}
 330 0002 0024     		movs	r4, #0
 331 0004 0C60     		str	r4, [r1]
 332 0006 4388     		ldrh	r3, [r0, #2]
 333 0008 C3F30E03 		ubfx	r3, r3, #0, #15
 334 000c 1360     		str	r3, [r2]
 335 000e 2046     		mov	r0, r4
 336 0010 5DF8044B 		ldr	r4, [sp], #4
 337 0014 7047     		bx	lr
 339              		.section	.text.pthread_equal,"ax",%progbits
 340              		.align	1
 341              		.global	pthread_equal
 342              		.syntax unified
 343              		.thumb
 344              		.thumb_func
 345              		.fpu fpv4-sp-d16
 347              	pthread_equal:
 348              		@ args = 0, pretend = 0, frame = 0
 349              		@ frame_needed = 0, uses_anonymous_args = 0
 350              		@ link register save eliminated.
 351 0000 8142     		cmp	r1, r0
 352 0002 14BF     		ite	ne
 353 0004 0020     		movne	r0, #0
 354 0006 0120     		moveq	r0, #1
 355 0008 7047     		bx	lr
 357              		.section	.text.pthread_self,"ax",%progbits
 358              		.align	1
 359              		.global	pthread_self
 360              		.syntax unified
 361              		.thumb
 362              		.thumb_func
 363              		.fpu fpv4-sp-d16
 365              	pthread_self:
 366              		@ args = 0, pretend = 0, frame = 0
 367              		@ frame_needed = 0, uses_anonymous_args = 0
ARM GAS  /tmp/cc4Vqwyt.s 			page 7


 368 0000 08B5     		push	{r3, lr}
 369 0002 0020     		movs	r0, #0
 370 0004 FFF7FEFF 		bl	xTaskGetApplicationTaskTag
 371 0008 08BD     		pop	{r3, pc}
 373              		.section	.text.prvExitThread,"ax",%progbits
 374              		.align	1
 375              		.syntax unified
 376              		.thumb
 377              		.thumb_func
 378              		.fpu fpv4-sp-d16
 380              	prvExitThread:
 381              		@ args = 0, pretend = 0, frame = 0
 382              		@ frame_needed = 0, uses_anonymous_args = 0
 383 0000 08B5     		push	{r3, lr}
 384 0002 FFF7FEFF 		bl	pthread_self
 385 0006 B0F90230 		ldrsh	r3, [r0, #2]
 386 000a 002B     		cmp	r3, #0
 387 000c 05DB     		blt	.L51
 388 000e FFF7FEFF 		bl	vPortFree
 389 0012 0020     		movs	r0, #0
 390 0014 FFF7FEFF 		bl	vTaskDelete
 391              	.L47:
 392 0018 08BD     		pop	{r3, pc}
 393              	.L51:
 394 001a 0023     		movs	r3, #0
 395 001c 1A46     		mov	r2, r3
 396 001e 1946     		mov	r1, r3
 397 0020 1030     		adds	r0, r0, #16
 398 0022 FFF7FEFF 		bl	xQueueGenericSend
 399 0026 0020     		movs	r0, #0
 400 0028 FFF7FEFF 		bl	vTaskSuspend
 401 002c F4E7     		b	.L47
 403              		.section	.text.prvRunThread,"ax",%progbits
 404              		.align	1
 405              		.syntax unified
 406              		.thumb
 407              		.thumb_func
 408              		.fpu fpv4-sp-d16
 410              	prvRunThread:
 411              		@ args = 0, pretend = 0, frame = 0
 412              		@ frame_needed = 0, uses_anonymous_args = 0
 413 0000 10B5     		push	{r4, lr}
 414 0002 0446     		mov	r4, r0
 415 0004 4368     		ldr	r3, [r0, #4]
 416 0006 8068     		ldr	r0, [r0, #8]
 417 0008 9847     		blx	r3
 418 000a C4F8B000 		str	r0, [r4, #176]
 419 000e FFF7FEFF 		bl	prvExitThread
 420 0012 10BD     		pop	{r4, pc}
 422              		.section	.text.pthread_exit,"ax",%progbits
 423              		.align	1
 424              		.global	pthread_exit
 425              		.syntax unified
 426              		.thumb
 427              		.thumb_func
 428              		.fpu fpv4-sp-d16
 430              	pthread_exit:
ARM GAS  /tmp/cc4Vqwyt.s 			page 8


 431              		@ args = 0, pretend = 0, frame = 0
 432              		@ frame_needed = 0, uses_anonymous_args = 0
 433 0000 10B5     		push	{r4, lr}
 434 0002 0446     		mov	r4, r0
 435 0004 FFF7FEFF 		bl	pthread_self
 436 0008 C0F8B040 		str	r4, [r0, #176]
 437 000c FFF7FEFF 		bl	prvExitThread
 438 0010 10BD     		pop	{r4, pc}
 440              		.section	.text.pthread_join,"ax",%progbits
 441              		.align	1
 442              		.global	pthread_join
 443              		.syntax unified
 444              		.thumb
 445              		.thumb_func
 446              		.fpu fpv4-sp-d16
 448              	pthread_join:
 449              		@ args = 0, pretend = 0, frame = 0
 450              		@ frame_needed = 0, uses_anonymous_args = 0
 451 0000 F8B5     		push	{r3, r4, r5, r6, r7, lr}
 452 0002 0446     		mov	r4, r0
 453 0004 0F46     		mov	r7, r1
 454 0006 B0F90230 		ldrsh	r3, [r0, #2]
 455 000a 002B     		cmp	r3, #0
 456 000c 04DB     		blt	.L65
 457 000e 2D25     		movs	r5, #45
 458              	.L57:
 459 0010 65B1     		cbz	r5, .L66
 460              	.L58:
 461 0012 A5B1     		cbz	r5, .L67
 462              	.L56:
 463 0014 2846     		mov	r0, r5
 464 0016 F8BD     		pop	{r3, r4, r5, r6, r7, pc}
 465              	.L65:
 466 0018 0021     		movs	r1, #0
 467 001a 6030     		adds	r0, r0, #96
 468 001c FFF7FEFF 		bl	xQueueSemaphoreTake
 469 0020 0128     		cmp	r0, #1
 470 0022 01D0     		beq	.L68
 471 0024 2D25     		movs	r5, #45
 472 0026 F4E7     		b	.L58
 473              	.L68:
 474 0028 0025     		movs	r5, #0
 475 002a F1E7     		b	.L57
 476              	.L66:
 477 002c FFF7FEFF 		bl	pthread_self
 478 0030 2146     		mov	r1, r4
 479 0032 FFF7FEFF 		bl	pthread_equal
 480 0036 0028     		cmp	r0, #0
 481 0038 EBD0     		beq	.L58
 482 003a 2D25     		movs	r5, #45
 483 003c EAE7     		b	.L56
 484              	.L67:
 485 003e 04F11006 		add	r6, r4, #16
 486 0042 4FF0FF31 		mov	r1, #-1
 487 0046 3046     		mov	r0, r6
 488 0048 FFF7FEFF 		bl	xQueueSemaphoreTake
 489 004c FFF7FEFF 		bl	vTaskSuspendAll
ARM GAS  /tmp/cc4Vqwyt.s 			page 9


 490 0050 0023     		movs	r3, #0
 491 0052 1A46     		mov	r2, r3
 492 0054 1946     		mov	r1, r3
 493 0056 3046     		mov	r0, r6
 494 0058 FFF7FEFF 		bl	xQueueGenericSend
 495 005c 3046     		mov	r0, r6
 496 005e FFF7FEFF 		bl	vQueueDelete
 497 0062 04F16006 		add	r6, r4, #96
 498 0066 0023     		movs	r3, #0
 499 0068 1A46     		mov	r2, r3
 500 006a 1946     		mov	r1, r3
 501 006c 3046     		mov	r0, r6
 502 006e FFF7FEFF 		bl	xQueueGenericSend
 503 0072 3046     		mov	r0, r6
 504 0074 FFF7FEFF 		bl	vQueueDelete
 505 0078 E068     		ldr	r0, [r4, #12]
 506 007a FFF7FEFF 		bl	vTaskDelete
 507 007e 17B1     		cbz	r7, .L60
 508 0080 D4F8B030 		ldr	r3, [r4, #176]
 509 0084 3B60     		str	r3, [r7]
 510              	.L60:
 511 0086 2046     		mov	r0, r4
 512 0088 FFF7FEFF 		bl	vPortFree
 513 008c FFF7FEFF 		bl	xTaskResumeAll
 514 0090 C0E7     		b	.L56
 516              		.section	.text.pthread_setschedparam,"ax",%progbits
 517              		.align	1
 518              		.global	pthread_setschedparam
 519              		.syntax unified
 520              		.thumb
 521              		.thumb_func
 522              		.fpu fpv4-sp-d16
 524              	pthread_setschedparam:
 525              		@ args = 0, pretend = 0, frame = 0
 526              		@ frame_needed = 0, uses_anonymous_args = 0
 527 0000 70B5     		push	{r4, r5, r6, lr}
 528 0002 0646     		mov	r6, r0
 529 0004 1446     		mov	r4, r2
 530 0006 1146     		mov	r1, r2
 531 0008 FFF7FEFF 		bl	pthread_attr_setschedparam
 532 000c 0546     		mov	r5, r0
 533 000e 08B1     		cbz	r0, .L72
 534              	.L69:
 535 0010 2846     		mov	r0, r5
 536 0012 70BD     		pop	{r4, r5, r6, pc}
 537              	.L72:
 538 0014 2168     		ldr	r1, [r4]
 539 0016 F068     		ldr	r0, [r6, #12]
 540 0018 FFF7FEFF 		bl	vTaskPrioritySet
 541 001c F8E7     		b	.L69
 543              		.section	.rodata.pthread_create.str1.4,"aMS",%progbits,1
 544              		.align	2
 545              	.LC0:
 546 0000 70746872 		.ascii	"pthread\000"
 546      65616400 
 547              		.section	.rodata.xDefaultThreadAttributes,"a"
 548              		.align	2
ARM GAS  /tmp/cc4Vqwyt.s 			page 10


 549              		.set	.LANCHOR0,. + 0
 552              	xDefaultThreadAttributes:
 553 0000 0002     		.short	512
 554 0002 0080     		.short	-32768
 555              		.ident	"GCC: (GNU Tools for Arm Embedded Processors 8-2019-q3-update) 8.3.1 20190703 (release) [gc
ARM GAS  /tmp/cc4Vqwyt.s 			page 11

