ARM GAS  /tmp/ccsRe0sL.s 			page 1


   1              		.cpu cortex-m4
   2              		.eabi_attribute 27, 1
   3              		.eabi_attribute 28, 1
   4              		.eabi_attribute 20, 1
   5              		.eabi_attribute 21, 1
   6              		.eabi_attribute 23, 3
   7              		.eabi_attribute 24, 1
   8              		.eabi_attribute 25, 1
   9              		.eabi_attribute 26, 1
  10              		.eabi_attribute 30, 1
  11              		.eabi_attribute 34, 1
  12              		.eabi_attribute 18, 4
  13              		.file	"ip4_frag.c"
  14              		.text
  15              		.section	.text.ip_reass_dequeue_datagram,"ax",%progbits
  16              		.align	1
  17              		.arch armv7e-m
  18              		.syntax unified
  19              		.thumb
  20              		.thumb_func
  21              		.fpu fpv4-sp-d16
  23              	ip_reass_dequeue_datagram:
  24              		@ args = 0, pretend = 0, frame = 0
  25              		@ frame_needed = 0, uses_anonymous_args = 0
  26 0000 38B5     		push	{r3, r4, r5, lr}
  27 0002 0446     		mov	r4, r0
  28 0004 0C4B     		ldr	r3, .L8
  29 0006 1B68     		ldr	r3, [r3]
  30 0008 8342     		cmp	r3, r0
  31 000a 08D0     		beq	.L6
  32 000c 0D46     		mov	r5, r1
  33 000e 51B1     		cbz	r1, .L7
  34              	.L4:
  35 0010 2368     		ldr	r3, [r4]
  36 0012 2B60     		str	r3, [r5]
  37              	.L3:
  38 0014 2146     		mov	r1, r4
  39 0016 0420     		movs	r0, #4
  40 0018 FFF7FEFF 		bl	memp_free
  41 001c 38BD     		pop	{r3, r4, r5, pc}
  42              	.L6:
  43 001e 0268     		ldr	r2, [r0]
  44 0020 054B     		ldr	r3, .L8
  45 0022 1A60     		str	r2, [r3]
  46 0024 F6E7     		b	.L3
  47              	.L7:
  48 0026 054B     		ldr	r3, .L8+4
  49 0028 40F24512 		movw	r2, #325
  50 002c 0449     		ldr	r1, .L8+8
  51 002e 0548     		ldr	r0, .L8+12
  52 0030 FFF7FEFF 		bl	printf
  53 0034 ECE7     		b	.L4
  54              	.L9:
  55 0036 00BF     		.align	2
  56              	.L8:
  57 0038 00000000 		.word	.LANCHOR0
  58 003c 00000000 		.word	.LC0
ARM GAS  /tmp/ccsRe0sL.s 			page 2


  59 0040 38000000 		.word	.LC1
  60 0044 54000000 		.word	.LC2
  62              		.section	.text.ip_reass_free_complete_datagram,"ax",%progbits
  63              		.align	1
  64              		.syntax unified
  65              		.thumb
  66              		.thumb_func
  67              		.fpu fpv4-sp-d16
  69              	ip_reass_free_complete_datagram:
  70              		@ args = 0, pretend = 0, frame = 0
  71              		@ frame_needed = 0, uses_anonymous_args = 0
  72 0000 2DE9F843 		push	{r3, r4, r5, r6, r7, r8, r9, lr}
  73 0004 8046     		mov	r8, r0
  74 0006 8946     		mov	r9, r1
  75 0008 8142     		cmp	r1, r0
  76 000a 15D0     		beq	.L20
  77              	.L11:
  78 000c B9F1000F 		cmp	r9, #0
  79 0010 09D0     		beq	.L12
  80 0012 D9F80030 		ldr	r3, [r9]
  81 0016 4345     		cmp	r3, r8
  82 0018 05D0     		beq	.L12
  83 001a 304B     		ldr	r3, .L25
  84 001c AD22     		movs	r2, #173
  85 001e 3049     		ldr	r1, .L25+4
  86 0020 3048     		ldr	r0, .L25+8
  87 0022 FFF7FEFF 		bl	printf
  88              	.L12:
  89 0026 D8F80440 		ldr	r4, [r8, #4]
  90 002a 6368     		ldr	r3, [r4, #4]
  91 002c 9A88     		ldrh	r2, [r3, #4]	@ unaligned
  92 002e 52B1     		cbz	r2, .L21
  93 0030 0026     		movs	r6, #0
  94              	.L13:
  95 0032 D8F80440 		ldr	r4, [r8, #4]
  96 0036 2EE0     		b	.L14
  97              	.L20:
  98 0038 284B     		ldr	r3, .L25
  99 003a AB22     		movs	r2, #171
 100 003c 2A49     		ldr	r1, .L25+12
 101 003e 2948     		ldr	r0, .L25+8
 102 0040 FFF7FEFF 		bl	printf
 103 0044 E2E7     		b	.L11
 104              	.L21:
 105 0046 1B68     		ldr	r3, [r3]	@ unaligned
 106 0048 C8F80430 		str	r3, [r8, #4]
 107 004c 4346     		mov	r3, r8
 108 004e 6268     		ldr	r2, [r4, #4]
 109 0050 53F8081F 		ldr	r1, [r3, #8]!	@ unaligned
 110 0054 5E68     		ldr	r6, [r3, #4]	@ unaligned
 111 0056 9D68     		ldr	r5, [r3, #8]	@ unaligned
 112 0058 D868     		ldr	r0, [r3, #12]	@ unaligned
 113 005a 1160     		str	r1, [r2]	@ unaligned
 114 005c 5660     		str	r6, [r2, #4]	@ unaligned
 115 005e 9560     		str	r5, [r2, #8]	@ unaligned
 116 0060 D060     		str	r0, [r2, #12]	@ unaligned
 117 0062 1969     		ldr	r1, [r3, #16]	@ unaligned
ARM GAS  /tmp/ccsRe0sL.s 			page 3


 118 0064 1161     		str	r1, [r2, #16]	@ unaligned
 119 0066 0121     		movs	r1, #1
 120 0068 2046     		mov	r0, r4
 121 006a FFF7FEFF 		bl	icmp_time_exceeded
 122 006e 2046     		mov	r0, r4
 123 0070 FFF7FEFF 		bl	pbuf_clen
 124 0074 0646     		mov	r6, r0
 125 0076 2046     		mov	r0, r4
 126 0078 FFF7FEFF 		bl	pbuf_free
 127 007c D9E7     		b	.L13
 128              	.L23:
 129 007e 174B     		ldr	r3, .L25
 130 0080 CC22     		movs	r2, #204
 131 0082 1A49     		ldr	r1, .L25+16
 132 0084 1748     		ldr	r0, .L25+8
 133 0086 FFF7FEFF 		bl	printf
 134              	.L15:
 135 008a 3544     		add	r5, r5, r6
 136 008c AEB2     		uxth	r6, r5
 137 008e 2046     		mov	r0, r4
 138 0090 FFF7FEFF 		bl	pbuf_free
 139 0094 3C46     		mov	r4, r7
 140              	.L14:
 141 0096 54B1     		cbz	r4, .L22
 142 0098 6368     		ldr	r3, [r4, #4]
 143 009a 1F68     		ldr	r7, [r3]	@ unaligned
 144 009c 2046     		mov	r0, r4
 145 009e FFF7FEFF 		bl	pbuf_clen
 146 00a2 0546     		mov	r5, r0
 147 00a4 3318     		adds	r3, r6, r0
 148 00a6 B3F5803F 		cmp	r3, #65536
 149 00aa EEDB     		blt	.L15
 150 00ac E7E7     		b	.L23
 151              	.L22:
 152 00ae 4946     		mov	r1, r9
 153 00b0 4046     		mov	r0, r8
 154 00b2 FFF7FEFF 		bl	ip_reass_dequeue_datagram
 155 00b6 0E4B     		ldr	r3, .L25+20
 156 00b8 1B88     		ldrh	r3, [r3]
 157 00ba B342     		cmp	r3, r6
 158 00bc 06D3     		bcc	.L24
 159              	.L17:
 160 00be 0C4A     		ldr	r2, .L25+20
 161 00c0 1388     		ldrh	r3, [r2]
 162 00c2 9B1B     		subs	r3, r3, r6
 163 00c4 1380     		strh	r3, [r2]	@ movhi
 164 00c6 3046     		mov	r0, r6
 165 00c8 BDE8F883 		pop	{r3, r4, r5, r6, r7, r8, r9, pc}
 166              	.L24:
 167 00cc 034B     		ldr	r3, .L25
 168 00ce D222     		movs	r2, #210
 169 00d0 0849     		ldr	r1, .L25+24
 170 00d2 0448     		ldr	r0, .L25+8
 171 00d4 FFF7FEFF 		bl	printf
 172 00d8 F1E7     		b	.L17
 173              	.L26:
 174 00da 00BF     		.align	2
ARM GAS  /tmp/ccsRe0sL.s 			page 4


 175              	.L25:
 176 00dc 00000000 		.word	.LC0
 177 00e0 0C000000 		.word	.LC4
 178 00e4 54000000 		.word	.LC2
 179 00e8 00000000 		.word	.LC3
 180 00ec 20000000 		.word	.LC5
 181 00f0 00000000 		.word	.LANCHOR1
 182 00f4 40000000 		.word	.LC6
 184              		.section	.text.ip_reass_remove_oldest_datagram,"ax",%progbits
 185              		.align	1
 186              		.syntax unified
 187              		.thumb
 188              		.thumb_func
 189              		.fpu fpv4-sp-d16
 191              	ip_reass_remove_oldest_datagram:
 192              		@ args = 0, pretend = 0, frame = 0
 193              		@ frame_needed = 0, uses_anonymous_args = 0
 194 0000 2DE9F041 		push	{r4, r5, r6, r7, r8, lr}
 195 0004 0646     		mov	r6, r0
 196 0006 8846     		mov	r8, r1
 197 0008 0027     		movs	r7, #0
 198 000a 2BE0     		b	.L35
 199              	.L41:
 200 000c 9A69     		ldr	r2, [r3, #24]
 201 000e D6F810C0 		ldr	ip, [r6, #16]	@ unaligned
 202 0012 6245     		cmp	r2, ip
 203 0014 11D1     		bne	.L29
 204 0016 B3F80CC0 		ldrh	ip, [r3, #12]
 205 001a B288     		ldrh	r2, [r6, #4]	@ unaligned
 206 001c 9445     		cmp	ip, r2
 207 001e 0CD1     		bne	.L29
 208 0020 01E0     		b	.L30
 209              	.L36:
 210 0022 2946     		mov	r1, r5
 211 0024 1846     		mov	r0, r3
 212              	.L30:
 213 0026 1A68     		ldr	r2, [r3]
 214 0028 92B1     		cbz	r2, .L39
 215              	.L31:
 216 002a 1D46     		mov	r5, r3
 217 002c 1346     		mov	r3, r2
 218              	.L28:
 219 002e 8BB1     		cbz	r3, .L40
 220 0030 5A69     		ldr	r2, [r3, #20]
 221 0032 D6F80CC0 		ldr	ip, [r6, #12]	@ unaligned
 222 0036 6245     		cmp	r2, ip
 223 0038 E8D0     		beq	.L41
 224              	.L29:
 225 003a 0134     		adds	r4, r4, #1
 226 003c 0028     		cmp	r0, #0
 227 003e F0D0     		beq	.L36
 228 0040 93F81FC0 		ldrb	ip, [r3, #31]	@ zero_extendqisi2
 229 0044 C27F     		ldrb	r2, [r0, #31]	@ zero_extendqisi2
 230 0046 9445     		cmp	ip, r2
 231 0048 EDD8     		bhi	.L30
 232 004a 2946     		mov	r1, r5
 233 004c 1846     		mov	r0, r3
ARM GAS  /tmp/ccsRe0sL.s 			page 5


 234 004e EAE7     		b	.L30
 235              	.L39:
 236 0050 2B46     		mov	r3, r5
 237 0052 EAE7     		b	.L31
 238              	.L40:
 239 0054 10B1     		cbz	r0, .L33
 240 0056 FFF7FEFF 		bl	ip_reass_free_complete_datagram
 241 005a 0744     		add	r7, r7, r0
 242              	.L33:
 243 005c 4745     		cmp	r7, r8
 244 005e 08DA     		bge	.L27
 245 0060 012C     		cmp	r4, #1
 246 0062 06DD     		ble	.L27
 247              	.L35:
 248 0064 044B     		ldr	r3, .L42
 249 0066 1B68     		ldr	r3, [r3]
 250 0068 0024     		movs	r4, #0
 251 006a 2146     		mov	r1, r4
 252 006c 2546     		mov	r5, r4
 253 006e 2046     		mov	r0, r4
 254 0070 DDE7     		b	.L28
 255              	.L27:
 256 0072 3846     		mov	r0, r7
 257 0074 BDE8F081 		pop	{r4, r5, r6, r7, r8, pc}
 258              	.L43:
 259              		.align	2
 260              	.L42:
 261 0078 00000000 		.word	.LANCHOR0
 263              		.section	.text.ip_frag_free_pbuf_custom_ref,"ax",%progbits
 264              		.align	1
 265              		.syntax unified
 266              		.thumb
 267              		.thumb_func
 268              		.fpu fpv4-sp-d16
 270              	ip_frag_free_pbuf_custom_ref:
 271              		@ args = 0, pretend = 0, frame = 0
 272              		@ frame_needed = 0, uses_anonymous_args = 0
 273 0000 10B5     		push	{r4, lr}
 274 0002 0446     		mov	r4, r0
 275 0004 20B1     		cbz	r0, .L47
 276              	.L45:
 277 0006 2146     		mov	r1, r4
 278 0008 0520     		movs	r0, #5
 279 000a FFF7FEFF 		bl	memp_free
 280 000e 10BD     		pop	{r4, pc}
 281              	.L47:
 282 0010 034B     		ldr	r3, .L48
 283 0012 4FF43172 		mov	r2, #708
 284 0016 0349     		ldr	r1, .L48+4
 285 0018 0348     		ldr	r0, .L48+8
 286 001a FFF7FEFF 		bl	printf
 287 001e F2E7     		b	.L45
 288              	.L49:
 289              		.align	2
 290              	.L48:
 291 0020 00000000 		.word	.LC0
 292 0024 00000000 		.word	.LC7
ARM GAS  /tmp/ccsRe0sL.s 			page 6


 293 0028 54000000 		.word	.LC2
 295              		.section	.text.ipfrag_free_pbuf_custom,"ax",%progbits
 296              		.align	1
 297              		.syntax unified
 298              		.thumb
 299              		.thumb_func
 300              		.fpu fpv4-sp-d16
 302              	ipfrag_free_pbuf_custom:
 303              		@ args = 0, pretend = 0, frame = 0
 304              		@ frame_needed = 0, uses_anonymous_args = 0
 305 0000 10B5     		push	{r4, lr}
 306 0002 0446     		mov	r4, r0
 307 0004 38B1     		cbz	r0, .L54
 308              	.L51:
 309 0006 6069     		ldr	r0, [r4, #20]
 310 0008 08B1     		cbz	r0, .L52
 311 000a FFF7FEFF 		bl	pbuf_free
 312              	.L52:
 313 000e 2046     		mov	r0, r4
 314 0010 FFF7FEFF 		bl	ip_frag_free_pbuf_custom_ref
 315 0014 10BD     		pop	{r4, pc}
 316              	.L54:
 317 0016 044B     		ldr	r3, .L55
 318 0018 40F2CE22 		movw	r2, #718
 319 001c 0349     		ldr	r1, .L55+4
 320 001e 0448     		ldr	r0, .L55+8
 321 0020 FFF7FEFF 		bl	printf
 322 0024 EFE7     		b	.L51
 323              	.L56:
 324 0026 00BF     		.align	2
 325              	.L55:
 326 0028 00000000 		.word	.LC0
 327 002c 00000000 		.word	.LC8
 328 0030 54000000 		.word	.LC2
 330              		.section	.text.ip_reass_chain_frag_into_datagram_and_validate,"ax",%progbits
 331              		.align	1
 332              		.syntax unified
 333              		.thumb
 334              		.thumb_func
 335              		.fpu fpv4-sp-d16
 337              	ip_reass_chain_frag_into_datagram_and_validate:
 338              		@ args = 0, pretend = 0, frame = 0
 339              		@ frame_needed = 0, uses_anonymous_args = 0
 340 0000 2DE9F843 		push	{r3, r4, r5, r6, r7, r8, r9, lr}
 341 0004 8046     		mov	r8, r0
 342 0006 0F46     		mov	r7, r1
 343 0008 9146     		mov	r9, r2
 344 000a 4C68     		ldr	r4, [r1, #4]
 345 000c 6088     		ldrh	r0, [r4, #2]	@ unaligned
 346 000e FFF7FEFF 		bl	lwip_htons
 347 0012 2378     		ldrb	r3, [r4]	@ zero_extendqisi2
 348 0014 03F00F03 		and	r3, r3, #15
 349 0018 9B00     		lsls	r3, r3, #2
 350 001a 8342     		cmp	r3, r0
 351 001c 03D9     		bls	.L90
 352 001e 4FF0FF30 		mov	r0, #-1
 353              	.L57:
ARM GAS  /tmp/ccsRe0sL.s 			page 7


 354 0022 BDE8F883 		pop	{r3, r4, r5, r6, r7, r8, r9, pc}
 355              	.L90:
 356 0026 C01A     		subs	r0, r0, r3
 357 0028 86B2     		uxth	r6, r0
 358 002a E088     		ldrh	r0, [r4, #6]	@ unaligned
 359 002c FFF7FEFF 		bl	lwip_htons
 360 0030 C0F30C00 		ubfx	r0, r0, #0, #13
 361 0034 C200     		lsls	r2, r0, #3
 362 0036 7D68     		ldr	r5, [r7, #4]
 363 0038 0023     		movs	r3, #0
 364 003a 2B70     		strb	r3, [r5]
 365 003c 6B70     		strb	r3, [r5, #1]
 366 003e AB70     		strb	r3, [r5, #2]
 367 0040 EB70     		strb	r3, [r5, #3]
 368 0042 AA80     		strh	r2, [r5, #4]	@ unaligned
 369 0044 06EB020C 		add	ip, r6, r2
 370 0048 1FFA8CFC 		uxth	ip, ip
 371 004c A5F806C0 		strh	ip, [r5, #6]	@ unaligned
 372 0050 9445     		cmp	ip, r2
 373 0052 C0F08580 		bcc	.L76
 374 0056 D8F80400 		ldr	r0, [r8, #4]
 375 005a 0126     		movs	r6, #1
 376 005c 1C46     		mov	r4, r3
 377 005e 1FE0     		b	.L59
 378              	.L92:
 379 0060 2860     		str	r0, [r5]	@ unaligned
 380 0062 ACB1     		cbz	r4, .L61
 381 0064 E188     		ldrh	r1, [r4, #6]	@ unaligned
 382 0066 9142     		cmp	r1, r2
 383 0068 7DD8     		bhi	.L77
 384 006a 9B88     		ldrh	r3, [r3, #4]	@ unaligned
 385 006c 9C45     		cmp	ip, r3
 386 006e 7DD8     		bhi	.L78
 387 0070 2760     		str	r7, [r4]	@ unaligned
 388 0072 AB88     		ldrh	r3, [r5, #4]	@ unaligned
 389 0074 9942     		cmp	r1, r3
 390 0076 00D0     		beq	.L62
 391 0078 0026     		movs	r6, #0
 392              	.L62:
 393 007a 18B3     		cbz	r0, .L91
 394              	.L65:
 395 007c B9F1000F 		cmp	r9, #0
 396 0080 41D1     		bne	.L69
 397 0082 98F81E30 		ldrb	r3, [r8, #30]	@ zero_extendqisi2
 398 0086 13F0010F 		tst	r3, #1
 399 008a 3CD1     		bne	.L69
 400 008c 4846     		mov	r0, r9
 401 008e C8E7     		b	.L57
 402              	.L61:
 403 0090 9B88     		ldrh	r3, [r3, #4]	@ unaligned
 404 0092 9C45     		cmp	ip, r3
 405 0094 6DD8     		bhi	.L80
 406 0096 C8F80470 		str	r7, [r8, #4]
 407 009a EEE7     		b	.L62
 408              	.L63:
 409 009c 1868     		ldr	r0, [r3]	@ unaligned
 410 009e 1C46     		mov	r4, r3
ARM GAS  /tmp/ccsRe0sL.s 			page 8


 411              	.L59:
 412 00a0 0028     		cmp	r0, #0
 413 00a2 EAD0     		beq	.L62
 414 00a4 4368     		ldr	r3, [r0, #4]
 415 00a6 9988     		ldrh	r1, [r3, #4]	@ unaligned
 416 00a8 9142     		cmp	r1, r2
 417 00aa D9D8     		bhi	.L92
 418 00ac 9142     		cmp	r1, r2
 419 00ae 63D0     		beq	.L81
 420 00b0 D888     		ldrh	r0, [r3, #6]	@ unaligned
 421 00b2 9042     		cmp	r0, r2
 422 00b4 63D8     		bhi	.L82
 423 00b6 002C     		cmp	r4, #0
 424 00b8 F0D0     		beq	.L63
 425 00ba E088     		ldrh	r0, [r4, #6]	@ unaligned
 426 00bc 8142     		cmp	r1, r0
 427 00be EDD0     		beq	.L63
 428 00c0 0026     		movs	r6, #0
 429 00c2 EBE7     		b	.L63
 430              	.L91:
 431 00c4 94B1     		cbz	r4, .L66
 432 00c6 E288     		ldrh	r2, [r4, #6]	@ unaligned
 433 00c8 AB88     		ldrh	r3, [r5, #4]	@ unaligned
 434 00ca 9A42     		cmp	r2, r3
 435 00cc 06D8     		bhi	.L93
 436              	.L67:
 437 00ce 2760     		str	r7, [r4]	@ unaligned
 438 00d0 E288     		ldrh	r2, [r4, #6]	@ unaligned
 439 00d2 AB88     		ldrh	r3, [r5, #4]	@ unaligned
 440 00d4 9A42     		cmp	r2, r3
 441 00d6 D1D0     		beq	.L65
 442 00d8 0026     		movs	r6, #0
 443 00da CFE7     		b	.L65
 444              	.L93:
 445 00dc 294B     		ldr	r3, .L95
 446 00de 4FF4DB72 		mov	r2, #438
 447 00e2 2949     		ldr	r1, .L95+4
 448 00e4 2948     		ldr	r0, .L95+8
 449 00e6 FFF7FEFF 		bl	printf
 450 00ea F0E7     		b	.L67
 451              	.L66:
 452 00ec D8F80430 		ldr	r3, [r8, #4]
 453 00f0 33B1     		cbz	r3, .L68
 454 00f2 244B     		ldr	r3, .L95
 455 00f4 40F2BF12 		movw	r2, #447
 456 00f8 2549     		ldr	r1, .L95+12
 457 00fa 2448     		ldr	r0, .L95+8
 458 00fc FFF7FEFF 		bl	printf
 459              	.L68:
 460 0100 C8F80470 		str	r7, [r8, #4]
 461 0104 BAE7     		b	.L65
 462              	.L69:
 463 0106 4EB3     		cbz	r6, .L70
 464 0108 D8F80430 		ldr	r3, [r8, #4]
 465 010c 1BB3     		cbz	r3, .L86
 466 010e 5868     		ldr	r0, [r3, #4]
 467 0110 8388     		ldrh	r3, [r0, #4]	@ unaligned
ARM GAS  /tmp/ccsRe0sL.s 			page 9


 468 0112 13BB     		cbnz	r3, .L87
 469 0114 2A68     		ldr	r2, [r5]	@ unaligned
 470              	.L71:
 471 0116 4AB1     		cbz	r2, .L72
 472 0118 5368     		ldr	r3, [r2, #4]
 473 011a E988     		ldrh	r1, [r5, #6]	@ unaligned
 474 011c 9A88     		ldrh	r2, [r3, #4]	@ unaligned
 475 011e 9142     		cmp	r1, r2
 476 0120 02D1     		bne	.L88
 477 0122 1A68     		ldr	r2, [r3]	@ unaligned
 478 0124 1D46     		mov	r5, r3
 479 0126 F6E7     		b	.L71
 480              	.L88:
 481 0128 1D46     		mov	r5, r3
 482 012a 0026     		movs	r6, #0
 483              	.L72:
 484 012c B6B1     		cbz	r6, .L70
 485 012e A842     		cmp	r0, r5
 486 0130 09D0     		beq	.L94
 487              	.L74:
 488 0132 2B68     		ldr	r3, [r5]	@ unaligned
 489 0134 93B1     		cbz	r3, .L70
 490 0136 134B     		ldr	r3, .L95
 491 0138 40F2E312 		movw	r2, #483
 492 013c 1549     		ldr	r1, .L95+16
 493 013e 1348     		ldr	r0, .L95+8
 494 0140 FFF7FEFF 		bl	printf
 495 0144 0AE0     		b	.L70
 496              	.L94:
 497 0146 0F4B     		ldr	r3, .L95
 498 0148 40F2E112 		movw	r2, #481
 499 014c 1249     		ldr	r1, .L95+20
 500 014e 0F48     		ldr	r0, .L95+8
 501 0150 FFF7FEFF 		bl	printf
 502 0154 EDE7     		b	.L74
 503              	.L86:
 504 0156 0026     		movs	r6, #0
 505 0158 00E0     		b	.L70
 506              	.L87:
 507 015a 0026     		movs	r6, #0
 508              	.L70:
 509 015c 3046     		mov	r0, r6
 510 015e 60E7     		b	.L57
 511              	.L76:
 512 0160 4FF0FF30 		mov	r0, #-1
 513 0164 5DE7     		b	.L57
 514              	.L77:
 515 0166 4FF0FF30 		mov	r0, #-1
 516 016a 5AE7     		b	.L57
 517              	.L78:
 518 016c 4FF0FF30 		mov	r0, #-1
 519 0170 57E7     		b	.L57
 520              	.L80:
 521 0172 4FF0FF30 		mov	r0, #-1
 522 0176 54E7     		b	.L57
 523              	.L81:
 524 0178 4FF0FF30 		mov	r0, #-1
ARM GAS  /tmp/ccsRe0sL.s 			page 10


 525 017c 51E7     		b	.L57
 526              	.L82:
 527 017e 4FF0FF30 		mov	r0, #-1
 528 0182 4EE7     		b	.L57
 529              	.L96:
 530              		.align	2
 531              	.L95:
 532 0184 00000000 		.word	.LC0
 533 0188 00000000 		.word	.LC9
 534 018c 54000000 		.word	.LC2
 535 0190 20000000 		.word	.LC10
 536 0194 68000000 		.word	.LC12
 537 0198 58000000 		.word	.LC11
 539              		.section	.text.ip_frag_alloc_pbuf_custom_ref,"ax",%progbits
 540              		.align	1
 541              		.syntax unified
 542              		.thumb
 543              		.thumb_func
 544              		.fpu fpv4-sp-d16
 546              	ip_frag_alloc_pbuf_custom_ref:
 547              		@ args = 0, pretend = 0, frame = 0
 548              		@ frame_needed = 0, uses_anonymous_args = 0
 549 0000 08B5     		push	{r3, lr}
 550 0002 0520     		movs	r0, #5
 551 0004 FFF7FEFF 		bl	memp_malloc
 552 0008 08BD     		pop	{r3, pc}
 554              		.section	.text.ip_reass_enqueue_new_datagram,"ax",%progbits
 555              		.align	1
 556              		.syntax unified
 557              		.thumb
 558              		.thumb_func
 559              		.fpu fpv4-sp-d16
 561              	ip_reass_enqueue_new_datagram:
 562              		@ args = 0, pretend = 0, frame = 0
 563              		@ frame_needed = 0, uses_anonymous_args = 0
 564 0000 70B5     		push	{r4, r5, r6, lr}
 565 0002 0546     		mov	r5, r0
 566 0004 0E46     		mov	r6, r1
 567 0006 0420     		movs	r0, #4
 568 0008 FFF7FEFF 		bl	memp_malloc
 569 000c 0446     		mov	r4, r0
 570 000e C8B1     		cbz	r0, .L104
 571              	.L100:
 572 0010 0022     		movs	r2, #0
 573 0012 6260     		str	r2, [r4, #4]	@ unaligned
 574 0014 A260     		str	r2, [r4, #8]	@ unaligned
 575 0016 E260     		str	r2, [r4, #12]	@ unaligned
 576 0018 2261     		str	r2, [r4, #16]	@ unaligned
 577 001a 6261     		str	r2, [r4, #20]	@ unaligned
 578 001c A261     		str	r2, [r4, #24]	@ unaligned
 579 001e E261     		str	r2, [r4, #28]	@ unaligned
 580 0020 0F23     		movs	r3, #15
 581 0022 E377     		strb	r3, [r4, #31]
 582 0024 0E4B     		ldr	r3, .L106
 583 0026 1A68     		ldr	r2, [r3]
 584 0028 2260     		str	r2, [r4]
 585 002a 1C60     		str	r4, [r3]
ARM GAS  /tmp/ccsRe0sL.s 			page 11


 586 002c 2A68     		ldr	r2, [r5]	@ unaligned
 587 002e 6E68     		ldr	r6, [r5, #4]	@ unaligned
 588 0030 A868     		ldr	r0, [r5, #8]	@ unaligned
 589 0032 E968     		ldr	r1, [r5, #12]	@ unaligned
 590 0034 A260     		str	r2, [r4, #8]	@ unaligned
 591 0036 E660     		str	r6, [r4, #12]	@ unaligned
 592 0038 2061     		str	r0, [r4, #16]	@ unaligned
 593 003a 6161     		str	r1, [r4, #20]	@ unaligned
 594 003c 2A69     		ldr	r2, [r5, #16]	@ unaligned
 595 003e A261     		str	r2, [r4, #24]	@ unaligned
 596              	.L99:
 597 0040 2046     		mov	r0, r4
 598 0042 70BD     		pop	{r4, r5, r6, pc}
 599              	.L104:
 600 0044 3146     		mov	r1, r6
 601 0046 2846     		mov	r0, r5
 602 0048 FFF7FEFF 		bl	ip_reass_remove_oldest_datagram
 603 004c B042     		cmp	r0, r6
 604 004e 02DA     		bge	.L105
 605              	.L101:
 606 0050 002C     		cmp	r4, #0
 607 0052 DDD1     		bne	.L100
 608 0054 F4E7     		b	.L99
 609              	.L105:
 610 0056 0420     		movs	r0, #4
 611 0058 FFF7FEFF 		bl	memp_malloc
 612 005c 0446     		mov	r4, r0
 613 005e F7E7     		b	.L101
 614              	.L107:
 615              		.align	2
 616              	.L106:
 617 0060 00000000 		.word	.LANCHOR0
 619              		.section	.text.ip_reass_tmr,"ax",%progbits
 620              		.align	1
 621              		.global	ip_reass_tmr
 622              		.syntax unified
 623              		.thumb
 624              		.thumb_func
 625              		.fpu fpv4-sp-d16
 627              	ip_reass_tmr:
 628              		@ args = 0, pretend = 0, frame = 0
 629              		@ frame_needed = 0, uses_anonymous_args = 0
 630 0000 38B5     		push	{r3, r4, r5, lr}
 631 0002 094B     		ldr	r3, .L115
 632 0004 1868     		ldr	r0, [r3]
 633 0006 0024     		movs	r4, #0
 634 0008 04E0     		b	.L109
 635              	.L110:
 636 000a 0568     		ldr	r5, [r0]
 637 000c 2146     		mov	r1, r4
 638 000e FFF7FEFF 		bl	ip_reass_free_complete_datagram
 639 0012 2846     		mov	r0, r5
 640              	.L109:
 641 0014 38B1     		cbz	r0, .L114
 642 0016 C37F     		ldrb	r3, [r0, #31]	@ zero_extendqisi2
 643 0018 002B     		cmp	r3, #0
 644 001a F6D0     		beq	.L110
ARM GAS  /tmp/ccsRe0sL.s 			page 12


 645 001c 013B     		subs	r3, r3, #1
 646 001e C377     		strb	r3, [r0, #31]
 647 0020 0446     		mov	r4, r0
 648 0022 0068     		ldr	r0, [r0]
 649 0024 F6E7     		b	.L109
 650              	.L114:
 651 0026 38BD     		pop	{r3, r4, r5, pc}
 652              	.L116:
 653              		.align	2
 654              	.L115:
 655 0028 00000000 		.word	.LANCHOR0
 657              		.section	.text.ip4_reass,"ax",%progbits
 658              		.align	1
 659              		.global	ip4_reass
 660              		.syntax unified
 661              		.thumb
 662              		.thumb_func
 663              		.fpu fpv4-sp-d16
 665              	ip4_reass:
 666              		@ args = 0, pretend = 0, frame = 0
 667              		@ frame_needed = 0, uses_anonymous_args = 0
 668 0000 2DE9F843 		push	{r3, r4, r5, r6, r7, r8, r9, lr}
 669 0004 0646     		mov	r6, r0
 670 0006 4568     		ldr	r5, [r0, #4]
 671 0008 2B78     		ldrb	r3, [r5]	@ zero_extendqisi2
 672 000a 03F00F03 		and	r3, r3, #15
 673 000e 052B     		cmp	r3, #5
 674 0010 40F0D680 		bne	.L118
 675 0014 E888     		ldrh	r0, [r5, #6]	@ unaligned
 676 0016 FFF7FEFF 		bl	lwip_htons
 677 001a C0F30C00 		ubfx	r0, r0, #0, #13
 678 001e C700     		lsls	r7, r0, #3
 679 0020 6888     		ldrh	r0, [r5, #2]	@ unaligned
 680 0022 FFF7FEFF 		bl	lwip_htons
 681 0026 2B78     		ldrb	r3, [r5]	@ zero_extendqisi2
 682 0028 03F00F03 		and	r3, r3, #15
 683 002c 9B00     		lsls	r3, r3, #2
 684 002e 8342     		cmp	r3, r0
 685 0030 00F2C680 		bhi	.L118
 686 0034 C31A     		subs	r3, r0, r3
 687 0036 1FFA83F8 		uxth	r8, r3
 688 003a 3046     		mov	r0, r6
 689 003c FFF7FEFF 		bl	pbuf_clen
 690 0040 8146     		mov	r9, r0
 691 0042 6F4B     		ldr	r3, .L149
 692 0044 1B88     		ldrh	r3, [r3]
 693 0046 0344     		add	r3, r3, r0
 694 0048 0A2B     		cmp	r3, #10
 695 004a 02DC     		bgt	.L141
 696              	.L119:
 697 004c 6D4B     		ldr	r3, .L149+4
 698 004e 1C68     		ldr	r4, [r3]
 699 0050 0DE0     		b	.L120
 700              	.L141:
 701 0052 0146     		mov	r1, r0
 702 0054 2846     		mov	r0, r5
 703 0056 FFF7FEFF 		bl	ip_reass_remove_oldest_datagram
ARM GAS  /tmp/ccsRe0sL.s 			page 13


 704 005a 0028     		cmp	r0, #0
 705 005c 00F0B080 		beq	.L118
 706 0060 674B     		ldr	r3, .L149
 707 0062 1B88     		ldrh	r3, [r3]
 708 0064 4B44     		add	r3, r3, r9
 709 0066 0A2B     		cmp	r3, #10
 710 0068 F0DD     		ble	.L119
 711 006a A9E0     		b	.L118
 712              	.L121:
 713 006c 2468     		ldr	r4, [r4]
 714              	.L120:
 715 006e 5CB1     		cbz	r4, .L122
 716 0070 6269     		ldr	r2, [r4, #20]
 717 0072 EB68     		ldr	r3, [r5, #12]	@ unaligned
 718 0074 9A42     		cmp	r2, r3
 719 0076 F9D1     		bne	.L121
 720 0078 A269     		ldr	r2, [r4, #24]
 721 007a 2B69     		ldr	r3, [r5, #16]	@ unaligned
 722 007c 9A42     		cmp	r2, r3
 723 007e F5D1     		bne	.L121
 724 0080 A289     		ldrh	r2, [r4, #12]
 725 0082 AB88     		ldrh	r3, [r5, #4]	@ unaligned
 726 0084 9A42     		cmp	r2, r3
 727 0086 F1D1     		bne	.L121
 728              	.L122:
 729 0088 74B3     		cbz	r4, .L142
 730 008a E888     		ldrh	r0, [r5, #6]	@ unaligned
 731 008c FFF7FEFF 		bl	lwip_htons
 732 0090 C0F30C00 		ubfx	r0, r0, #0, #13
 733 0094 80B3     		cbz	r0, .L143
 734              	.L125:
 735 0096 ED88     		ldrh	r5, [r5, #6]	@ unaligned
 736 0098 05F02005 		and	r5, r5, #32
 737 009c 002D     		cmp	r5, #0
 738 009e 0CBF     		ite	eq
 739 00a0 0122     		moveq	r2, #1
 740 00a2 0022     		movne	r2, #0
 741 00a4 09D1     		bne	.L126
 742 00a6 07EB0803 		add	r3, r7, r8
 743 00aa 9BB2     		uxth	r3, r3
 744 00ac 9F42     		cmp	r7, r3
 745 00ae 00F28480 		bhi	.L127
 746 00b2 4FF6EB71 		movw	r1, #65515
 747 00b6 8B42     		cmp	r3, r1
 748 00b8 7FD8     		bhi	.L127
 749              	.L126:
 750 00ba 3146     		mov	r1, r6
 751 00bc 2046     		mov	r0, r4
 752 00be FFF7FEFF 		bl	ip_reass_chain_frag_into_datagram_and_validate
 753 00c2 B0F1FF3F 		cmp	r0, #-1
 754 00c6 78D0     		beq	.L127
 755 00c8 4D4B     		ldr	r3, .L149
 756 00ca 1A88     		ldrh	r2, [r3]
 757 00cc 9144     		add	r9, r9, r2
 758 00ce A3F80090 		strh	r9, [r3]	@ movhi
 759 00d2 2DB9     		cbnz	r5, .L128
 760 00d4 4744     		add	r7, r7, r8
ARM GAS  /tmp/ccsRe0sL.s 			page 14


 761 00d6 A783     		strh	r7, [r4, #28]	@ movhi
 762 00d8 A37F     		ldrb	r3, [r4, #30]	@ zero_extendqisi2
 763 00da 43F00103 		orr	r3, r3, #1
 764 00de A377     		strb	r3, [r4, #30]
 765              	.L128:
 766 00e0 0128     		cmp	r0, #1
 767 00e2 1DD0     		beq	.L144
 768 00e4 0025     		movs	r5, #0
 769 00e6 6FE0     		b	.L117
 770              	.L142:
 771 00e8 4946     		mov	r1, r9
 772 00ea 2846     		mov	r0, r5
 773 00ec FFF7FEFF 		bl	ip_reass_enqueue_new_datagram
 774 00f0 0446     		mov	r4, r0
 775 00f2 0028     		cmp	r0, #0
 776 00f4 CFD1     		bne	.L125
 777 00f6 63E0     		b	.L118
 778              	.L143:
 779 00f8 E089     		ldrh	r0, [r4, #14]
 780 00fa FFF7FEFF 		bl	lwip_htons
 781 00fe C0F30C00 		ubfx	r0, r0, #0, #13
 782 0102 0028     		cmp	r0, #0
 783 0104 C7D0     		beq	.L125
 784 0106 2A68     		ldr	r2, [r5]	@ unaligned
 785 0108 D5F804C0 		ldr	ip, [r5, #4]	@ unaligned
 786 010c A868     		ldr	r0, [r5, #8]	@ unaligned
 787 010e E968     		ldr	r1, [r5, #12]	@ unaligned
 788 0110 A260     		str	r2, [r4, #8]	@ unaligned
 789 0112 C4F80CC0 		str	ip, [r4, #12]	@ unaligned
 790 0116 2061     		str	r0, [r4, #16]	@ unaligned
 791 0118 6161     		str	r1, [r4, #20]	@ unaligned
 792 011a 2A69     		ldr	r2, [r5, #16]	@ unaligned
 793 011c A261     		str	r2, [r4, #24]	@ unaligned
 794 011e BAE7     		b	.L125
 795              	.L144:
 796 0120 A08B     		ldrh	r0, [r4, #28]
 797 0122 1430     		adds	r0, r0, #20
 798 0124 6368     		ldr	r3, [r4, #4]
 799 0126 5D68     		ldr	r5, [r3, #4]
 800 0128 2E68     		ldr	r6, [r5]	@ unaligned
 801 012a 2346     		mov	r3, r4
 802 012c 53F8082F 		ldr	r2, [r3, #8]!	@ unaligned
 803 0130 D3F804C0 		ldr	ip, [r3, #4]	@ unaligned
 804 0134 9F68     		ldr	r7, [r3, #8]	@ unaligned
 805 0136 D968     		ldr	r1, [r3, #12]	@ unaligned
 806 0138 2A60     		str	r2, [r5]	@ unaligned
 807 013a C5F804C0 		str	ip, [r5, #4]	@ unaligned
 808 013e AF60     		str	r7, [r5, #8]	@ unaligned
 809 0140 E960     		str	r1, [r5, #12]	@ unaligned
 810 0142 1A69     		ldr	r2, [r3, #16]	@ unaligned
 811 0144 2A61     		str	r2, [r5, #16]	@ unaligned
 812 0146 80B2     		uxth	r0, r0
 813 0148 FFF7FEFF 		bl	lwip_htons
 814 014c 6880     		strh	r0, [r5, #2]	@ unaligned
 815 014e 0023     		movs	r3, #0
 816 0150 AB71     		strb	r3, [r5, #6]
 817 0152 EB71     		strb	r3, [r5, #7]
ARM GAS  /tmp/ccsRe0sL.s 			page 15


 818 0154 AB72     		strb	r3, [r5, #10]
 819 0156 EB72     		strb	r3, [r5, #11]
 820 0158 6568     		ldr	r5, [r4, #4]
 821 015a 09E0     		b	.L130
 822              	.L131:
 823 015c 7768     		ldr	r7, [r6, #4]
 824 015e 1421     		movs	r1, #20
 825 0160 3046     		mov	r0, r6
 826 0162 FFF7FEFF 		bl	pbuf_remove_header
 827 0166 3146     		mov	r1, r6
 828 0168 2846     		mov	r0, r5
 829 016a FFF7FEFF 		bl	pbuf_cat
 830 016e 3E68     		ldr	r6, [r7]	@ unaligned
 831              	.L130:
 832 0170 002E     		cmp	r6, #0
 833 0172 F3D1     		bne	.L131
 834 0174 234B     		ldr	r3, .L149+4
 835 0176 1968     		ldr	r1, [r3]
 836 0178 A142     		cmp	r1, r4
 837 017a 05D0     		beq	.L145
 838              	.L133:
 839 017c 29B1     		cbz	r1, .L132
 840 017e 0B68     		ldr	r3, [r1]
 841 0180 A342     		cmp	r3, r4
 842 0182 02D0     		beq	.L132
 843 0184 1946     		mov	r1, r3
 844 0186 F9E7     		b	.L133
 845              	.L145:
 846 0188 3146     		mov	r1, r6
 847              	.L132:
 848 018a 2046     		mov	r0, r4
 849 018c FFF7FEFF 		bl	ip_reass_dequeue_datagram
 850 0190 2846     		mov	r0, r5
 851 0192 FFF7FEFF 		bl	pbuf_clen
 852 0196 0446     		mov	r4, r0
 853 0198 194B     		ldr	r3, .L149
 854 019a 1B88     		ldrh	r3, [r3]
 855 019c 8342     		cmp	r3, r0
 856 019e 04D3     		bcc	.L146
 857              	.L135:
 858 01a0 174A     		ldr	r2, .L149
 859 01a2 1388     		ldrh	r3, [r2]
 860 01a4 1B1B     		subs	r3, r3, r4
 861 01a6 1380     		strh	r3, [r2]	@ movhi
 862 01a8 0EE0     		b	.L117
 863              	.L146:
 864 01aa 174B     		ldr	r3, .L149+8
 865 01ac 40F29B22 		movw	r2, #667
 866 01b0 1649     		ldr	r1, .L149+12
 867 01b2 1748     		ldr	r0, .L149+16
 868 01b4 FFF7FEFF 		bl	printf
 869 01b8 F2E7     		b	.L135
 870              	.L127:
 871 01ba 44B1     		cbz	r4, .L147
 872              	.L136:
 873 01bc 6368     		ldr	r3, [r4, #4]
 874 01be 73B1     		cbz	r3, .L148
ARM GAS  /tmp/ccsRe0sL.s 			page 16


 875              	.L118:
 876 01c0 3046     		mov	r0, r6
 877 01c2 FFF7FEFF 		bl	pbuf_free
 878 01c6 0025     		movs	r5, #0
 879              	.L117:
 880 01c8 2846     		mov	r0, r5
 881 01ca BDE8F883 		pop	{r3, r4, r5, r6, r7, r8, r9, pc}
 882              	.L147:
 883 01ce 0E4B     		ldr	r3, .L149+8
 884 01d0 4FF42A72 		mov	r2, #680
 885 01d4 0F49     		ldr	r1, .L149+20
 886 01d6 0E48     		ldr	r0, .L149+16
 887 01d8 FFF7FEFF 		bl	printf
 888 01dc EEE7     		b	.L136
 889              	.L148:
 890 01de 094B     		ldr	r3, .L149+4
 891 01e0 1B68     		ldr	r3, [r3]
 892 01e2 A342     		cmp	r3, r4
 893 01e4 06D0     		beq	.L137
 894 01e6 084B     		ldr	r3, .L149+8
 895 01e8 40F2AB22 		movw	r2, #683
 896 01ec 0A49     		ldr	r1, .L149+24
 897 01ee 0848     		ldr	r0, .L149+16
 898 01f0 FFF7FEFF 		bl	printf
 899              	.L137:
 900 01f4 0021     		movs	r1, #0
 901 01f6 2046     		mov	r0, r4
 902 01f8 FFF7FEFF 		bl	ip_reass_dequeue_datagram
 903 01fc E0E7     		b	.L118
 904              	.L150:
 905 01fe 00BF     		.align	2
 906              	.L149:
 907 0200 00000000 		.word	.LANCHOR1
 908 0204 00000000 		.word	.LANCHOR0
 909 0208 00000000 		.word	.LC0
 910 020c 00000000 		.word	.LC13
 911 0210 54000000 		.word	.LC2
 912 0214 1C000000 		.word	.LC14
 913 0218 28000000 		.word	.LC15
 915              		.section	.text.ip4_frag,"ax",%progbits
 916              		.align	1
 917              		.global	ip4_frag
 918              		.syntax unified
 919              		.thumb
 920              		.thumb_func
 921              		.fpu fpv4-sp-d16
 923              	ip4_frag:
 924              		@ args = 0, pretend = 0, frame = 32
 925              		@ frame_needed = 0, uses_anonymous_args = 0
 926 0000 2DE9F04F 		push	{r4, r5, r6, r7, r8, r9, r10, fp, lr}
 927 0004 8BB0     		sub	sp, sp, #44
 928 0006 0646     		mov	r6, r0
 929 0008 0691     		str	r1, [sp, #24]
 930 000a 0892     		str	r2, [sp, #32]
 931 000c 0B8D     		ldrh	r3, [r1, #40]
 932 000e 143B     		subs	r3, r3, #20
 933 0010 4ED4     		bmi	.L170
ARM GAS  /tmp/ccsRe0sL.s 			page 17


 934              	.L152:
 935 0012 C3F3CF03 		ubfx	r3, r3, #3, #16
 936 0016 0493     		str	r3, [sp, #16]
 937 0018 D6F80490 		ldr	r9, [r6, #4]
 938 001c 99F80030 		ldrb	r3, [r9]	@ zero_extendqisi2
 939 0020 03F00F03 		and	r3, r3, #15
 940 0024 052B     		cmp	r3, #5
 941 0026 40F0D080 		bne	.L167
 942 002a 7389     		ldrh	r3, [r6, #10]
 943 002c 132B     		cmp	r3, #19
 944 002e 41D9     		bls	.L171
 945 0030 B9F80600 		ldrh	r0, [r9, #6]	@ unaligned
 946 0034 FFF7FEFF 		bl	lwip_htons
 947 0038 C0F30C03 		ubfx	r3, r0, #0, #13
 948 003c 0593     		str	r3, [sp, #20]
 949 003e 00F40053 		and	r3, r0, #8192
 950 0042 0993     		str	r3, [sp, #36]
 951 0044 B6F808A0 		ldrh	r10, [r6, #8]
 952 0048 AAF1140A 		sub	r10, r10, #20
 953 004c 1FFA8AFB 		uxth	fp, r10
 954 0050 1427     		movs	r7, #20
 955 0052 0024     		movs	r4, #0
 956              	.L155:
 957 0054 BBF1000F 		cmp	fp, #0
 958 0058 00F0B580 		beq	.L172
 959 005c 049B     		ldr	r3, [sp, #16]
 960 005e DB00     		lsls	r3, r3, #3
 961 0060 9BB2     		uxth	r3, r3
 962 0062 5B45     		cmp	r3, fp
 963 0064 28BF     		it	cs
 964 0066 5B46     		movcs	r3, fp
 965 0068 0393     		str	r3, [sp, #12]
 966 006a 4FF42072 		mov	r2, #640
 967 006e 1421     		movs	r1, #20
 968 0070 0E20     		movs	r0, #14
 969 0072 FFF7FEFF 		bl	pbuf_alloc
 970 0076 8246     		mov	r10, r0
 971 0078 0028     		cmp	r0, #0
 972 007a 00F0A980 		beq	.L168
 973 007e 4389     		ldrh	r3, [r0, #10]
 974 0080 132B     		cmp	r3, #19
 975 0082 21D9     		bls	.L173
 976              	.L156:
 977 0084 DAF80430 		ldr	r3, [r10, #4]
 978 0088 D9F80020 		ldr	r2, [r9]	@ unaligned
 979 008c D9F80450 		ldr	r5, [r9, #4]	@ unaligned
 980 0090 D9F80800 		ldr	r0, [r9, #8]	@ unaligned
 981 0094 D9F80C10 		ldr	r1, [r9, #12]	@ unaligned
 982 0098 1A60     		str	r2, [r3]	@ unaligned
 983 009a 5D60     		str	r5, [r3, #4]	@ unaligned
 984 009c 9860     		str	r0, [r3, #8]	@ unaligned
 985 009e D960     		str	r1, [r3, #12]	@ unaligned
 986 00a0 D9F81020 		ldr	r2, [r9, #16]	@ unaligned
 987 00a4 1A61     		str	r2, [r3, #16]	@ unaligned
 988 00a6 DAF80430 		ldr	r3, [r10, #4]
 989 00aa 0793     		str	r3, [sp, #28]
 990 00ac 039D     		ldr	r5, [sp, #12]
ARM GAS  /tmp/ccsRe0sL.s 			page 18


 991 00ae 3CE0     		b	.L157
 992              	.L170:
 993 00b0 0733     		adds	r3, r3, #7
 994 00b2 AEE7     		b	.L152
 995              	.L171:
 996 00b4 484B     		ldr	r3, .L178
 997 00b6 4FF43F72 		mov	r2, #764
 998 00ba 4849     		ldr	r1, .L178+4
 999 00bc 4848     		ldr	r0, .L178+8
 1000 00be FFF7FEFF 		bl	printf
 1001 00c2 6FF00500 		mvn	r0, #5
 1002 00c6 43E0     		b	.L153
 1003              	.L173:
 1004 00c8 434B     		ldr	r3, .L178
 1005 00ca 40F22532 		movw	r2, #805
 1006 00ce 4549     		ldr	r1, .L178+12
 1007 00d0 4348     		ldr	r0, .L178+8
 1008 00d2 FFF7FEFF 		bl	printf
 1009 00d6 D5E7     		b	.L156
 1010              	.L177:
 1011 00d8 3F4B     		ldr	r3, .L178
 1012 00da 40F22D32 		movw	r2, #813
 1013 00de 4249     		ldr	r1, .L178+16
 1014 00e0 3F48     		ldr	r0, .L178+8
 1015 00e2 FFF7FEFF 		bl	printf
 1016 00e6 26E0     		b	.L158
 1017              	.L159:
 1018 00e8 FFF7FEFF 		bl	ip_frag_alloc_pbuf_custom_ref
 1019 00ec 8046     		mov	r8, r0
 1020 00ee 50B3     		cbz	r0, .L174
 1021 00f0 7368     		ldr	r3, [r6, #4]
 1022 00f2 0194     		str	r4, [sp, #4]
 1023 00f4 3B44     		add	r3, r3, r7
 1024 00f6 0093     		str	r3, [sp]
 1025 00f8 0346     		mov	r3, r0
 1026 00fa 4122     		movs	r2, #65
 1027 00fc 2146     		mov	r1, r4
 1028 00fe 0020     		movs	r0, #0
 1029 0100 FFF7FEFF 		bl	pbuf_alloced_custom
 1030 0104 0290     		str	r0, [sp, #8]
 1031 0106 30B3     		cbz	r0, .L175
 1032 0108 3046     		mov	r0, r6
 1033 010a FFF7FEFF 		bl	pbuf_ref
 1034 010e C8F81460 		str	r6, [r8, #20]
 1035 0112 364B     		ldr	r3, .L178+20
 1036 0114 C8F81030 		str	r3, [r8, #16]
 1037 0118 0299     		ldr	r1, [sp, #8]
 1038 011a 5046     		mov	r0, r10
 1039 011c FFF7FEFF 		bl	pbuf_cat
 1040 0120 2D1B     		subs	r5, r5, r4
 1041 0122 ADB2     		uxth	r5, r5
 1042 0124 0DB1     		cbz	r5, .L157
 1043 0126 3668     		ldr	r6, [r6]
 1044 0128 0027     		movs	r7, #0
 1045              	.L157:
 1046 012a EDB1     		cbz	r5, .L176
 1047 012c 7389     		ldrh	r3, [r6, #10]
ARM GAS  /tmp/ccsRe0sL.s 			page 19


 1048 012e DC1B     		subs	r4, r3, r7
 1049 0130 A4B2     		uxth	r4, r4
 1050 0132 BB42     		cmp	r3, r7
 1051 0134 D0D3     		bcc	.L177
 1052              	.L158:
 1053 0136 AC42     		cmp	r4, r5
 1054 0138 28BF     		it	cs
 1055 013a 2C46     		movcs	r4, r5
 1056 013c 002C     		cmp	r4, #0
 1057 013e D3D1     		bne	.L159
 1058 0140 3668     		ldr	r6, [r6]
 1059 0142 2746     		mov	r7, r4
 1060 0144 F1E7     		b	.L157
 1061              	.L174:
 1062 0146 5046     		mov	r0, r10
 1063 0148 FFF7FEFF 		bl	pbuf_free
 1064 014c 4FF0FF30 		mov	r0, #-1
 1065              	.L153:
 1066 0150 0BB0     		add	sp, sp, #44
 1067              		@ sp needed
 1068 0152 BDE8F08F 		pop	{r4, r5, r6, r7, r8, r9, r10, fp, pc}
 1069              	.L175:
 1070 0156 4046     		mov	r0, r8
 1071 0158 FFF7FEFF 		bl	ip_frag_free_pbuf_custom_ref
 1072 015c 5046     		mov	r0, r10
 1073 015e FFF7FEFF 		bl	pbuf_free
 1074 0162 4FF0FF30 		mov	r0, #-1
 1075 0166 F3E7     		b	.L153
 1076              	.L176:
 1077 0168 2744     		add	r7, r7, r4
 1078 016a BFB2     		uxth	r7, r7
 1079 016c 069B     		ldr	r3, [sp, #24]
 1080 016e 1B8D     		ldrh	r3, [r3, #40]
 1081 0170 133B     		subs	r3, r3, #19
 1082 0172 059A     		ldr	r2, [sp, #20]
 1083 0174 C2F30C00 		ubfx	r0, r2, #0, #13
 1084 0178 5B45     		cmp	r3, fp
 1085 017a 01DD     		ble	.L164
 1086 017c 099B     		ldr	r3, [sp, #36]
 1087 017e 0BB1     		cbz	r3, .L165
 1088              	.L164:
 1089 0180 40F40050 		orr	r0, r0, #8192
 1090              	.L165:
 1091 0184 FFF7FEFF 		bl	lwip_htons
 1092 0188 079D     		ldr	r5, [sp, #28]
 1093 018a E880     		strh	r0, [r5, #6]	@ unaligned
 1094 018c 039B     		ldr	r3, [sp, #12]
 1095 018e 03F11400 		add	r0, r3, #20
 1096 0192 80B2     		uxth	r0, r0
 1097 0194 FFF7FEFF 		bl	lwip_htons
 1098 0198 6880     		strh	r0, [r5, #2]	@ unaligned
 1099 019a 0023     		movs	r3, #0
 1100 019c AB72     		strb	r3, [r5, #10]
 1101 019e EB72     		strb	r3, [r5, #11]
 1102 01a0 0698     		ldr	r0, [sp, #24]
 1103 01a2 4369     		ldr	r3, [r0, #20]
 1104 01a4 089A     		ldr	r2, [sp, #32]
ARM GAS  /tmp/ccsRe0sL.s 			page 20


 1105 01a6 5146     		mov	r1, r10
 1106 01a8 9847     		blx	r3
 1107 01aa 5046     		mov	r0, r10
 1108 01ac FFF7FEFF 		bl	pbuf_free
 1109 01b0 039B     		ldr	r3, [sp, #12]
 1110 01b2 ABEB030B 		sub	fp, fp, r3
 1111 01b6 1FFA8BFB 		uxth	fp, fp
 1112 01ba 059B     		ldr	r3, [sp, #20]
 1113 01bc 049A     		ldr	r2, [sp, #16]
 1114 01be 1344     		add	r3, r3, r2
 1115 01c0 9BB2     		uxth	r3, r3
 1116 01c2 0593     		str	r3, [sp, #20]
 1117 01c4 46E7     		b	.L155
 1118              	.L172:
 1119 01c6 0020     		movs	r0, #0
 1120 01c8 C2E7     		b	.L153
 1121              	.L167:
 1122 01ca 6FF00500 		mvn	r0, #5
 1123 01ce BFE7     		b	.L153
 1124              	.L168:
 1125 01d0 4FF0FF30 		mov	r0, #-1
 1126 01d4 BCE7     		b	.L153
 1127              	.L179:
 1128 01d6 00BF     		.align	2
 1129              	.L178:
 1130 01d8 00000000 		.word	.LC0
 1131 01dc 00000000 		.word	.LC16
 1132 01e0 54000000 		.word	.LC2
 1133 01e4 1C000000 		.word	.LC17
 1134 01e8 3C000000 		.word	.LC18
 1135 01ec 00000000 		.word	ipfrag_free_pbuf_custom
 1137              		.section	.bss.ip_reass_pbufcount,"aw",%nobits
 1138              		.align	1
 1139              		.set	.LANCHOR1,. + 0
 1142              	ip_reass_pbufcount:
 1143 0000 0000     		.space	2
 1144              		.section	.bss.reassdatagrams,"aw",%nobits
 1145              		.align	2
 1146              		.set	.LANCHOR0,. + 0
 1149              	reassdatagrams:
 1150 0000 00000000 		.space	4
 1151              		.section	.rodata.ip4_frag.str1.4,"aMS",%progbits,1
 1152              		.align	2
 1153              	.LC16:
 1154 0000 6970345F 		.ascii	"ip4_frag(): pbuf too short\000"
 1154      66726167 
 1154      28293A20 
 1154      70627566 
 1154      20746F6F 
 1155 001b 00       		.space	1
 1156              	.LC17:
 1157 001c 74686973 		.ascii	"this needs a pbuf in one piece!\000"
 1157      206E6565 
 1157      64732061 
 1157      20706275 
 1157      6620696E 
 1158              	.LC18:
ARM GAS  /tmp/ccsRe0sL.s 			page 21


 1159 003c 702D3E6C 		.ascii	"p->len >= poff\000"
 1159      656E203E 
 1159      3D20706F 
 1159      666600
 1160              		.section	.rodata.ip4_reass.str1.4,"aMS",%progbits,1
 1161              		.align	2
 1162              	.LC13:
 1163 0000 69705F72 		.ascii	"ip_reass_pbufcount >= clen\000"
 1163      65617373 
 1163      5F706275 
 1163      66636F75 
 1163      6E74203E 
 1164 001b 00       		.space	1
 1165              	.LC14:
 1166 001c 69707220 		.ascii	"ipr != NULL\000"
 1166      213D204E 
 1166      554C4C00 
 1167              	.LC15:
 1168 0028 6E6F7420 		.ascii	"not firstalthough just enqueued\000"
 1168      66697273 
 1168      74616C74 
 1168      686F7567 
 1168      68206A75 
 1169              		.section	.rodata.ip_frag_free_pbuf_custom_ref.str1.4,"aMS",%progbits,1
 1170              		.align	2
 1171              	.LC7:
 1172 0000 7020213D 		.ascii	"p != NULL\000"
 1172      204E554C 
 1172      4C00
 1173              		.section	.rodata.ip_reass_chain_frag_into_datagram_and_validate.str1.4,"aMS",%progbits,1
 1174              		.align	2
 1175              	.LC9:
 1176 0000 63686563 		.ascii	"check fragments don't overlap\000"
 1176      6B206672 
 1176      61676D65 
 1176      6E747320 
 1176      646F6E27 
 1177 001e 0000     		.space	2
 1178              	.LC10:
 1179 0020 6E6F2070 		.ascii	"no previous fragment, this must be the first fragme"
 1179      72657669 
 1179      6F757320 
 1179      66726167 
 1179      6D656E74 
 1180 0053 6E742100 		.ascii	"nt!\000"
 1181 0057 00       		.space	1
 1182              	.LC11:
 1183 0058 73616E69 		.ascii	"sanity check\000"
 1183      74792063 
 1183      6865636B 
 1183      00
 1184 0065 000000   		.space	3
 1185              	.LC12:
 1186 0068 76616C69 		.ascii	"validate_datagram:next_pbuf!=NULL\000"
 1186      64617465 
 1186      5F646174 
 1186      61677261 
ARM GAS  /tmp/ccsRe0sL.s 			page 22


 1186      6D3A6E65 
 1187              		.section	.rodata.ip_reass_dequeue_datagram.str1.4,"aMS",%progbits,1
 1188              		.align	2
 1189              	.LC0:
 1190 0000 4D696464 		.ascii	"Middlewares/Third_Party/LwIP/src/core/ipv4/ip4_frag"
 1190      6C657761 
 1190      7265732F 
 1190      54686972 
 1190      645F5061 
 1191 0033 2E6300   		.ascii	".c\000"
 1192 0036 0000     		.space	2
 1193              	.LC1:
 1194 0038 73616E69 		.ascii	"sanity check linked list\000"
 1194      74792063 
 1194      6865636B 
 1194      206C696E 
 1194      6B656420 
 1195 0051 000000   		.space	3
 1196              	.LC2:
 1197 0054 41737365 		.ascii	"Assertion \"%s\" failed at line %d in %s\012\000"
 1197      7274696F 
 1197      6E202225 
 1197      73222066 
 1197      61696C65 
 1198              		.section	.rodata.ip_reass_free_complete_datagram.str1.4,"aMS",%progbits,1
 1199              		.align	2
 1200              	.LC3:
 1201 0000 70726576 		.ascii	"prev != ipr\000"
 1201      20213D20 
 1201      69707200 
 1202              	.LC4:
 1203 000c 70726576 		.ascii	"prev->next == ipr\000"
 1203      2D3E6E65 
 1203      7874203D 
 1203      3D206970 
 1203      7200
 1204 001e 0000     		.space	2
 1205              	.LC5:
 1206 0020 70627566 		.ascii	"pbufs_freed + clen <= 0xffff\000"
 1206      735F6672 
 1206      65656420 
 1206      2B20636C 
 1206      656E203C 
 1207 003d 000000   		.space	3
 1208              	.LC6:
 1209 0040 69705F72 		.ascii	"ip_reass_pbufcount >= pbufs_freed\000"
 1209      65617373 
 1209      5F706275 
 1209      66636F75 
 1209      6E74203E 
 1210              		.section	.rodata.ipfrag_free_pbuf_custom.str1.4,"aMS",%progbits,1
 1211              		.align	2
 1212              	.LC8:
 1213 0000 70637220 		.ascii	"pcr != NULL\000"
 1213      213D204E 
 1213      554C4C00 
 1214              		.ident	"GCC: (GNU Tools for Arm Embedded Processors 8-2019-q3-update) 8.3.1 20190703 (release) [gc
ARM GAS  /tmp/ccsRe0sL.s 			page 23


ARM GAS  /tmp/ccsRe0sL.s 			page 24

