ARM GAS  /tmp/cchoKqCk.s 			page 1


   1              		.cpu cortex-m4
   2              		.eabi_attribute 27, 1
   3              		.eabi_attribute 28, 1
   4              		.eabi_attribute 20, 1
   5              		.eabi_attribute 21, 1
   6              		.eabi_attribute 23, 3
   7              		.eabi_attribute 24, 1
   8              		.eabi_attribute 25, 1
   9              		.eabi_attribute 26, 1
  10              		.eabi_attribute 30, 1
  11              		.eabi_attribute 34, 1
  12              		.eabi_attribute 18, 4
  13              		.file	"stream_buffer.c"
  14              		.text
  15              		.section	.text.prvBytesInBuffer,"ax",%progbits
  16              		.align	1
  17              		.arch armv7e-m
  18              		.syntax unified
  19              		.thumb
  20              		.thumb_func
  21              		.fpu fpv4-sp-d16
  23              	prvBytesInBuffer:
  24              		@ args = 0, pretend = 0, frame = 0
  25              		@ frame_needed = 0, uses_anonymous_args = 0
  26              		@ link register save eliminated.
  27 0000 8268     		ldr	r2, [r0, #8]
  28 0002 4368     		ldr	r3, [r0, #4]
  29 0004 1344     		add	r3, r3, r2
  30 0006 0068     		ldr	r0, [r0]
  31 0008 181A     		subs	r0, r3, r0
  32 000a 8242     		cmp	r2, r0
  33 000c 00D8     		bhi	.L1
  34 000e 801A     		subs	r0, r0, r2
  35              	.L1:
  36 0010 7047     		bx	lr
  38              		.section	.text.prvInitialiseNewStreamBuffer,"ax",%progbits
  39              		.align	1
  40              		.syntax unified
  41              		.thumb
  42              		.thumb_func
  43              		.fpu fpv4-sp-d16
  45              	prvInitialiseNewStreamBuffer:
  46              		@ args = 4, pretend = 0, frame = 0
  47              		@ frame_needed = 0, uses_anonymous_args = 0
  48 0000 F8B5     		push	{r3, r4, r5, r6, r7, lr}
  49 0002 0446     		mov	r4, r0
  50 0004 0F46     		mov	r7, r1
  51 0006 1646     		mov	r6, r2
  52 0008 1D46     		mov	r5, r3
  53 000a 2422     		movs	r2, #36
  54 000c 0021     		movs	r1, #0
  55 000e FFF7FEFF 		bl	memset
  56 0012 A761     		str	r7, [r4, #24]
  57 0014 A660     		str	r6, [r4, #8]
  58 0016 E560     		str	r5, [r4, #12]
  59 0018 9DF81830 		ldrb	r3, [sp, #24]	@ zero_extendqisi2
  60 001c 2377     		strb	r3, [r4, #28]
ARM GAS  /tmp/cchoKqCk.s 			page 2


  61 001e F8BD     		pop	{r3, r4, r5, r6, r7, pc}
  63              		.section	.text.prvWriteBytesToBuffer,"ax",%progbits
  64              		.align	1
  65              		.syntax unified
  66              		.thumb
  67              		.thumb_func
  68              		.fpu fpv4-sp-d16
  70              	prvWriteBytesToBuffer:
  71              		@ args = 0, pretend = 0, frame = 0
  72              		@ frame_needed = 0, uses_anonymous_args = 0
  73 0000 2DE9F041 		push	{r4, r5, r6, r7, r8, lr}
  74 0004 0646     		mov	r6, r0
  75 0006 8846     		mov	r8, r1
  76 0008 1746     		mov	r7, r2
  77 000a 4468     		ldr	r4, [r0, #4]
  78 000c 8568     		ldr	r5, [r0, #8]
  79 000e 2D1B     		subs	r5, r5, r4
  80 0010 9542     		cmp	r5, r2
  81 0012 28BF     		it	cs
  82 0014 1546     		movcs	r5, r2
  83 0016 8069     		ldr	r0, [r0, #24]
  84 0018 2A46     		mov	r2, r5
  85 001a 2044     		add	r0, r0, r4
  86 001c FFF7FEFF 		bl	memcpy
  87 0020 AF42     		cmp	r7, r5
  88 0022 08D8     		bhi	.L9
  89              	.L6:
  90 0024 3C44     		add	r4, r4, r7
  91 0026 B368     		ldr	r3, [r6, #8]
  92 0028 A342     		cmp	r3, r4
  93 002a 00D8     		bhi	.L7
  94 002c E41A     		subs	r4, r4, r3
  95              	.L7:
  96 002e 7460     		str	r4, [r6, #4]
  97 0030 3846     		mov	r0, r7
  98 0032 BDE8F081 		pop	{r4, r5, r6, r7, r8, pc}
  99              	.L9:
 100 0036 7A1B     		subs	r2, r7, r5
 101 0038 08EB0501 		add	r1, r8, r5
 102 003c B069     		ldr	r0, [r6, #24]
 103 003e FFF7FEFF 		bl	memcpy
 104 0042 EFE7     		b	.L6
 106              		.section	.text.prvWriteMessageToBuffer,"ax",%progbits
 107              		.align	1
 108              		.syntax unified
 109              		.thumb
 110              		.thumb_func
 111              		.fpu fpv4-sp-d16
 113              	prvWriteMessageToBuffer:
 114              		@ args = 4, pretend = 0, frame = 8
 115              		@ frame_needed = 0, uses_anonymous_args = 0
 116 0000 30B5     		push	{r4, r5, lr}
 117 0002 83B0     		sub	sp, sp, #12
 118 0004 0446     		mov	r4, r0
 119 0006 0192     		str	r2, [sp, #4]
 120 0008 1846     		mov	r0, r3
 121 000a 6BB1     		cbz	r3, .L11
ARM GAS  /tmp/cchoKqCk.s 			page 3


 122 000c 0D46     		mov	r5, r1
 123 000e 237F     		ldrb	r3, [r4, #28]	@ zero_extendqisi2
 124 0010 13F0010F 		tst	r3, #1
 125 0014 0AD1     		bne	.L12
 126 0016 9042     		cmp	r0, r2
 127 0018 28BF     		it	cs
 128 001a 1046     		movcs	r0, r2
 129 001c 0190     		str	r0, [sp, #4]
 130              	.L13:
 131 001e 019A     		ldr	r2, [sp, #4]
 132 0020 2946     		mov	r1, r5
 133 0022 2046     		mov	r0, r4
 134 0024 FFF7FEFF 		bl	prvWriteBytesToBuffer
 135              	.L11:
 136 0028 03B0     		add	sp, sp, #12
 137              		@ sp needed
 138 002a 30BD     		pop	{r4, r5, pc}
 139              	.L12:
 140 002c 069B     		ldr	r3, [sp, #24]
 141 002e 9842     		cmp	r0, r3
 142 0030 01D2     		bcs	.L16
 143 0032 0020     		movs	r0, #0
 144 0034 F8E7     		b	.L11
 145              	.L16:
 146 0036 0422     		movs	r2, #4
 147 0038 0DEB0201 		add	r1, sp, r2
 148 003c 2046     		mov	r0, r4
 149 003e FFF7FEFF 		bl	prvWriteBytesToBuffer
 150 0042 ECE7     		b	.L13
 152              		.section	.text.prvReadBytesFromBuffer,"ax",%progbits
 153              		.align	1
 154              		.syntax unified
 155              		.thumb
 156              		.thumb_func
 157              		.fpu fpv4-sp-d16
 159              	prvReadBytesFromBuffer:
 160              		@ args = 0, pretend = 0, frame = 0
 161              		@ frame_needed = 0, uses_anonymous_args = 0
 162 0000 2DE9F041 		push	{r4, r5, r6, r7, r8, lr}
 163 0004 9A42     		cmp	r2, r3
 164 0006 28BF     		it	cs
 165 0008 1A46     		movcs	r2, r3
 166 000a 1446     		mov	r4, r2
 167 000c 12B9     		cbnz	r2, .L22
 168              	.L17:
 169 000e 2046     		mov	r0, r4
 170 0010 BDE8F081 		pop	{r4, r5, r6, r7, r8, pc}
 171              	.L22:
 172 0014 8846     		mov	r8, r1
 173 0016 0546     		mov	r5, r0
 174 0018 0668     		ldr	r6, [r0]
 175 001a 8768     		ldr	r7, [r0, #8]
 176 001c BF1B     		subs	r7, r7, r6
 177 001e 9742     		cmp	r7, r2
 178 0020 28BF     		it	cs
 179 0022 1746     		movcs	r7, r2
 180 0024 8169     		ldr	r1, [r0, #24]
ARM GAS  /tmp/cchoKqCk.s 			page 4


 181 0026 3A46     		mov	r2, r7
 182 0028 3144     		add	r1, r1, r6
 183 002a 4046     		mov	r0, r8
 184 002c FFF7FEFF 		bl	memcpy
 185 0030 BC42     		cmp	r4, r7
 186 0032 06D8     		bhi	.L23
 187              	.L19:
 188 0034 2644     		add	r6, r6, r4
 189 0036 AB68     		ldr	r3, [r5, #8]
 190 0038 B342     		cmp	r3, r6
 191 003a 00D8     		bhi	.L20
 192 003c F61A     		subs	r6, r6, r3
 193              	.L20:
 194 003e 2E60     		str	r6, [r5]
 195 0040 E5E7     		b	.L17
 196              	.L23:
 197 0042 E21B     		subs	r2, r4, r7
 198 0044 A969     		ldr	r1, [r5, #24]
 199 0046 08EB0700 		add	r0, r8, r7
 200 004a FFF7FEFF 		bl	memcpy
 201 004e F1E7     		b	.L19
 203              		.section	.text.prvReadMessageFromBuffer,"ax",%progbits
 204              		.align	1
 205              		.syntax unified
 206              		.thumb
 207              		.thumb_func
 208              		.fpu fpv4-sp-d16
 210              	prvReadMessageFromBuffer:
 211              		@ args = 4, pretend = 0, frame = 8
 212              		@ frame_needed = 0, uses_anonymous_args = 0
 213 0000 2DE9F043 		push	{r4, r5, r6, r7, r8, r9, lr}
 214 0004 83B0     		sub	sp, sp, #12
 215 0006 0546     		mov	r5, r0
 216 0008 8846     		mov	r8, r1
 217 000a 1646     		mov	r6, r2
 218 000c 1C46     		mov	r4, r3
 219 000e 0A9F     		ldr	r7, [sp, #40]
 220 0010 47B9     		cbnz	r7, .L28
 221              	.L25:
 222 0012 2346     		mov	r3, r4
 223 0014 3246     		mov	r2, r6
 224 0016 4146     		mov	r1, r8
 225 0018 2846     		mov	r0, r5
 226 001a FFF7FEFF 		bl	prvReadBytesFromBuffer
 227 001e 03B0     		add	sp, sp, #12
 228              		@ sp needed
 229 0020 BDE8F083 		pop	{r4, r5, r6, r7, r8, r9, pc}
 230              	.L28:
 231 0024 D0F80090 		ldr	r9, [r0]
 232 0028 3A46     		mov	r2, r7
 233 002a 01A9     		add	r1, sp, #4
 234 002c FFF7FEFF 		bl	prvReadBytesFromBuffer
 235 0030 019B     		ldr	r3, [sp, #4]
 236 0032 E41B     		subs	r4, r4, r7
 237 0034 B342     		cmp	r3, r6
 238 0036 03D9     		bls	.L26
 239 0038 C5F80090 		str	r9, [r5]
ARM GAS  /tmp/cchoKqCk.s 			page 5


 240 003c 0026     		movs	r6, #0
 241 003e E8E7     		b	.L25
 242              	.L26:
 243 0040 1E46     		mov	r6, r3
 244 0042 E6E7     		b	.L25
 246              		.section	.text.xStreamBufferGenericCreate,"ax",%progbits
 247              		.align	1
 248              		.global	xStreamBufferGenericCreate
 249              		.syntax unified
 250              		.thumb
 251              		.thumb_func
 252              		.fpu fpv4-sp-d16
 254              	xStreamBufferGenericCreate:
 255              		@ args = 0, pretend = 0, frame = 0
 256              		@ frame_needed = 0, uses_anonymous_args = 0
 257 0000 F0B5     		push	{r4, r5, r6, r7, lr}
 258 0002 83B0     		sub	sp, sp, #12
 259 0004 0D46     		mov	r5, r1
 260 0006 012A     		cmp	r2, #1
 261 0008 12D0     		beq	.L36
 262 000a 0027     		movs	r7, #0
 263              	.L30:
 264 000c 05B9     		cbnz	r5, .L31
 265 000e 0125     		movs	r5, #1
 266              	.L31:
 267 0010 461C     		adds	r6, r0, #1
 268 0012 2530     		adds	r0, r0, #37
 269 0014 FFF7FEFF 		bl	pvPortMalloc
 270 0018 0446     		mov	r4, r0
 271 001a 30B1     		cbz	r0, .L29
 272 001c 0097     		str	r7, [sp]
 273 001e 2B46     		mov	r3, r5
 274 0020 3246     		mov	r2, r6
 275 0022 00F12401 		add	r1, r0, #36
 276 0026 FFF7FEFF 		bl	prvInitialiseNewStreamBuffer
 277              	.L29:
 278 002a 2046     		mov	r0, r4
 279 002c 03B0     		add	sp, sp, #12
 280              		@ sp needed
 281 002e F0BD     		pop	{r4, r5, r6, r7, pc}
 282              	.L36:
 283 0030 0127     		movs	r7, #1
 284 0032 EBE7     		b	.L30
 286              		.section	.text.xStreamBufferGenericCreateStatic,"ax",%progbits
 287              		.align	1
 288              		.global	xStreamBufferGenericCreateStatic
 289              		.syntax unified
 290              		.thumb
 291              		.thumb_func
 292              		.fpu fpv4-sp-d16
 294              	xStreamBufferGenericCreateStatic:
 295              		@ args = 4, pretend = 0, frame = 8
 296              		@ frame_needed = 0, uses_anonymous_args = 0
 297 0000 30B5     		push	{r4, r5, lr}
 298 0002 85B0     		sub	sp, sp, #20
 299 0004 1D46     		mov	r5, r3
 300 0006 089C     		ldr	r4, [sp, #32]
ARM GAS  /tmp/cchoKqCk.s 			page 6


 301 0008 0B46     		mov	r3, r1
 302 000a 01B9     		cbnz	r1, .L38
 303 000c 0123     		movs	r3, #1
 304              	.L38:
 305 000e 8AB1     		cbz	r2, .L42
 306 0010 0321     		movs	r1, #3
 307              	.L39:
 308 0012 2422     		movs	r2, #36
 309 0014 0392     		str	r2, [sp, #12]
 310 0016 7DB1     		cbz	r5, .L43
 311 0018 4CB1     		cbz	r4, .L40
 312 001a 0091     		str	r1, [sp]
 313 001c 0246     		mov	r2, r0
 314 001e 2946     		mov	r1, r5
 315 0020 2046     		mov	r0, r4
 316 0022 FFF7FEFF 		bl	prvInitialiseNewStreamBuffer
 317 0026 237F     		ldrb	r3, [r4, #28]	@ zero_extendqisi2
 318 0028 43F00203 		orr	r3, r3, #2
 319 002c 2377     		strb	r3, [r4, #28]
 320              	.L40:
 321 002e 2046     		mov	r0, r4
 322 0030 05B0     		add	sp, sp, #20
 323              		@ sp needed
 324 0032 30BD     		pop	{r4, r5, pc}
 325              	.L42:
 326 0034 0221     		movs	r1, #2
 327 0036 ECE7     		b	.L39
 328              	.L43:
 329 0038 2C46     		mov	r4, r5
 330 003a F8E7     		b	.L40
 332              		.section	.text.vStreamBufferDelete,"ax",%progbits
 333              		.align	1
 334              		.global	vStreamBufferDelete
 335              		.syntax unified
 336              		.thumb
 337              		.thumb_func
 338              		.fpu fpv4-sp-d16
 340              	vStreamBufferDelete:
 341              		@ args = 0, pretend = 0, frame = 0
 342              		@ frame_needed = 0, uses_anonymous_args = 0
 343 0000 08B5     		push	{r3, lr}
 344 0002 037F     		ldrb	r3, [r0, #28]	@ zero_extendqisi2
 345 0004 13F0020F 		tst	r3, #2
 346 0008 02D1     		bne	.L46
 347 000a FFF7FEFF 		bl	vPortFree
 348              	.L45:
 349 000e 08BD     		pop	{r3, pc}
 350              	.L46:
 351 0010 2422     		movs	r2, #36
 352 0012 0021     		movs	r1, #0
 353 0014 FFF7FEFF 		bl	memset
 354 0018 F9E7     		b	.L45
 356              		.section	.text.xStreamBufferReset,"ax",%progbits
 357              		.align	1
 358              		.global	xStreamBufferReset
 359              		.syntax unified
 360              		.thumb
ARM GAS  /tmp/cchoKqCk.s 			page 7


 361              		.thumb_func
 362              		.fpu fpv4-sp-d16
 364              	xStreamBufferReset:
 365              		@ args = 0, pretend = 0, frame = 0
 366              		@ frame_needed = 0, uses_anonymous_args = 0
 367 0000 30B5     		push	{r4, r5, lr}
 368 0002 83B0     		sub	sp, sp, #12
 369 0004 0446     		mov	r4, r0
 370 0006 056A     		ldr	r5, [r0, #32]
 371 0008 FFF7FEFF 		bl	vPortEnterCritical
 372 000c 2369     		ldr	r3, [r4, #16]
 373 000e 2BB1     		cbz	r3, .L54
 374 0010 0024     		movs	r4, #0
 375              	.L50:
 376 0012 FFF7FEFF 		bl	vPortExitCritical
 377 0016 2046     		mov	r0, r4
 378 0018 03B0     		add	sp, sp, #12
 379              		@ sp needed
 380 001a 30BD     		pop	{r4, r5, pc}
 381              	.L54:
 382 001c 6369     		ldr	r3, [r4, #20]
 383 001e 0BB1     		cbz	r3, .L55
 384 0020 0024     		movs	r4, #0
 385 0022 F6E7     		b	.L50
 386              	.L55:
 387 0024 237F     		ldrb	r3, [r4, #28]	@ zero_extendqisi2
 388 0026 0093     		str	r3, [sp]
 389 0028 E368     		ldr	r3, [r4, #12]
 390 002a A268     		ldr	r2, [r4, #8]
 391 002c A169     		ldr	r1, [r4, #24]
 392 002e 2046     		mov	r0, r4
 393 0030 FFF7FEFF 		bl	prvInitialiseNewStreamBuffer
 394 0034 2562     		str	r5, [r4, #32]
 395 0036 0124     		movs	r4, #1
 396 0038 EBE7     		b	.L50
 398              		.section	.text.xStreamBufferSetTriggerLevel,"ax",%progbits
 399              		.align	1
 400              		.global	xStreamBufferSetTriggerLevel
 401              		.syntax unified
 402              		.thumb
 403              		.thumb_func
 404              		.fpu fpv4-sp-d16
 406              	xStreamBufferSetTriggerLevel:
 407              		@ args = 0, pretend = 0, frame = 0
 408              		@ frame_needed = 0, uses_anonymous_args = 0
 409              		@ link register save eliminated.
 410 0000 0B46     		mov	r3, r1
 411 0002 01B9     		cbnz	r1, .L57
 412 0004 0123     		movs	r3, #1
 413              	.L57:
 414 0006 8268     		ldr	r2, [r0, #8]
 415 0008 9A42     		cmp	r2, r3
 416 000a 02D3     		bcc	.L60
 417 000c C360     		str	r3, [r0, #12]
 418 000e 0120     		movs	r0, #1
 419 0010 7047     		bx	lr
 420              	.L60:
ARM GAS  /tmp/cchoKqCk.s 			page 8


 421 0012 0020     		movs	r0, #0
 422 0014 7047     		bx	lr
 424              		.section	.text.xStreamBufferSpacesAvailable,"ax",%progbits
 425              		.align	1
 426              		.global	xStreamBufferSpacesAvailable
 427              		.syntax unified
 428              		.thumb
 429              		.thumb_func
 430              		.fpu fpv4-sp-d16
 432              	xStreamBufferSpacesAvailable:
 433              		@ args = 0, pretend = 0, frame = 0
 434              		@ frame_needed = 0, uses_anonymous_args = 0
 435              		@ link register save eliminated.
 436 0000 8268     		ldr	r2, [r0, #8]
 437 0002 0368     		ldr	r3, [r0]
 438 0004 1344     		add	r3, r3, r2
 439 0006 4068     		ldr	r0, [r0, #4]
 440 0008 181A     		subs	r0, r3, r0
 441 000a 0138     		subs	r0, r0, #1
 442 000c 8242     		cmp	r2, r0
 443 000e 00D8     		bhi	.L61
 444 0010 801A     		subs	r0, r0, r2
 445              	.L61:
 446 0012 7047     		bx	lr
 448              		.section	.text.xStreamBufferBytesAvailable,"ax",%progbits
 449              		.align	1
 450              		.global	xStreamBufferBytesAvailable
 451              		.syntax unified
 452              		.thumb
 453              		.thumb_func
 454              		.fpu fpv4-sp-d16
 456              	xStreamBufferBytesAvailable:
 457              		@ args = 0, pretend = 0, frame = 0
 458              		@ frame_needed = 0, uses_anonymous_args = 0
 459 0000 08B5     		push	{r3, lr}
 460 0002 FFF7FEFF 		bl	prvBytesInBuffer
 461 0006 08BD     		pop	{r3, pc}
 463              		.section	.text.xStreamBufferSend,"ax",%progbits
 464              		.align	1
 465              		.global	xStreamBufferSend
 466              		.syntax unified
 467              		.thumb
 468              		.thumb_func
 469              		.fpu fpv4-sp-d16
 471              	xStreamBufferSend:
 472              		@ args = 0, pretend = 0, frame = 16
 473              		@ frame_needed = 0, uses_anonymous_args = 0
 474 0000 2DE9F041 		push	{r4, r5, r6, r7, r8, lr}
 475 0004 86B0     		sub	sp, sp, #24
 476 0006 0446     		mov	r4, r0
 477 0008 8846     		mov	r8, r1
 478 000a 1746     		mov	r7, r2
 479 000c 0393     		str	r3, [sp, #12]
 480 000e 037F     		ldrb	r3, [r0, #28]	@ zero_extendqisi2
 481 0010 13F0010F 		tst	r3, #1
 482 0014 24D0     		beq	.L74
 483 0016 161D     		adds	r6, r2, #4
ARM GAS  /tmp/cchoKqCk.s 			page 9


 484              	.L66:
 485 0018 039B     		ldr	r3, [sp, #12]
 486 001a 33B3     		cbz	r3, .L67
 487 001c 04A8     		add	r0, sp, #16
 488 001e FFF7FEFF 		bl	vTaskSetTimeOutState
 489              	.L69:
 490 0022 FFF7FEFF 		bl	vPortEnterCritical
 491 0026 2046     		mov	r0, r4
 492 0028 FFF7FEFF 		bl	xStreamBufferSpacesAvailable
 493 002c 0546     		mov	r5, r0
 494 002e 8642     		cmp	r6, r0
 495 0030 18D9     		bls	.L68
 496 0032 0020     		movs	r0, #0
 497 0034 FFF7FEFF 		bl	xTaskNotifyStateClear
 498 0038 FFF7FEFF 		bl	xTaskGetCurrentTaskHandle
 499 003c 6061     		str	r0, [r4, #20]
 500 003e FFF7FEFF 		bl	vPortExitCritical
 501 0042 039B     		ldr	r3, [sp, #12]
 502 0044 0022     		movs	r2, #0
 503 0046 1146     		mov	r1, r2
 504 0048 1046     		mov	r0, r2
 505 004a FFF7FEFF 		bl	xTaskNotifyWait
 506 004e 0023     		movs	r3, #0
 507 0050 6361     		str	r3, [r4, #20]
 508 0052 03A9     		add	r1, sp, #12
 509 0054 04A8     		add	r0, sp, #16
 510 0056 FFF7FEFF 		bl	xTaskCheckForTimeOut
 511 005a 0028     		cmp	r0, #0
 512 005c E1D0     		beq	.L69
 513 005e 03E0     		b	.L70
 514              	.L74:
 515 0060 1646     		mov	r6, r2
 516 0062 D9E7     		b	.L66
 517              	.L68:
 518 0064 FFF7FEFF 		bl	vPortExitCritical
 519              	.L70:
 520 0068 1DB9     		cbnz	r5, .L71
 521              	.L67:
 522 006a 2046     		mov	r0, r4
 523 006c FFF7FEFF 		bl	xStreamBufferSpacesAvailable
 524 0070 0546     		mov	r5, r0
 525              	.L71:
 526 0072 0096     		str	r6, [sp]
 527 0074 2B46     		mov	r3, r5
 528 0076 3A46     		mov	r2, r7
 529 0078 4146     		mov	r1, r8
 530 007a 2046     		mov	r0, r4
 531 007c FFF7FEFF 		bl	prvWriteMessageToBuffer
 532 0080 0546     		mov	r5, r0
 533 0082 18B9     		cbnz	r0, .L76
 534              	.L65:
 535 0084 2846     		mov	r0, r5
 536 0086 06B0     		add	sp, sp, #24
 537              		@ sp needed
 538 0088 BDE8F081 		pop	{r4, r5, r6, r7, r8, pc}
 539              	.L76:
 540 008c 2046     		mov	r0, r4
ARM GAS  /tmp/cchoKqCk.s 			page 10


 541 008e FFF7FEFF 		bl	prvBytesInBuffer
 542 0092 E368     		ldr	r3, [r4, #12]
 543 0094 9842     		cmp	r0, r3
 544 0096 F5D3     		bcc	.L65
 545 0098 FFF7FEFF 		bl	vTaskSuspendAll
 546 009c 2369     		ldr	r3, [r4, #16]
 547 009e 3BB1     		cbz	r3, .L73
 548 00a0 2069     		ldr	r0, [r4, #16]
 549 00a2 0023     		movs	r3, #0
 550 00a4 1A46     		mov	r2, r3
 551 00a6 1946     		mov	r1, r3
 552 00a8 FFF7FEFF 		bl	xTaskGenericNotify
 553 00ac 0023     		movs	r3, #0
 554 00ae 2361     		str	r3, [r4, #16]
 555              	.L73:
 556 00b0 FFF7FEFF 		bl	xTaskResumeAll
 557 00b4 E6E7     		b	.L65
 559              		.section	.text.xStreamBufferSendFromISR,"ax",%progbits
 560              		.align	1
 561              		.global	xStreamBufferSendFromISR
 562              		.syntax unified
 563              		.thumb
 564              		.thumb_func
 565              		.fpu fpv4-sp-d16
 567              	xStreamBufferSendFromISR:
 568              		@ args = 0, pretend = 0, frame = 0
 569              		@ frame_needed = 0, uses_anonymous_args = 0
 570 0000 2DE9F041 		push	{r4, r5, r6, r7, r8, lr}
 571 0004 82B0     		sub	sp, sp, #8
 572 0006 0446     		mov	r4, r0
 573 0008 0E46     		mov	r6, r1
 574 000a 1546     		mov	r5, r2
 575 000c 9846     		mov	r8, r3
 576 000e 037F     		ldrb	r3, [r0, #28]	@ zero_extendqisi2
 577 0010 13F0010F 		tst	r3, #1
 578 0014 01D0     		beq	.L81
 579 0016 171D     		adds	r7, r2, #4
 580 0018 00E0     		b	.L78
 581              	.L81:
 582 001a 1746     		mov	r7, r2
 583              	.L78:
 584 001c 2046     		mov	r0, r4
 585 001e FFF7FEFF 		bl	xStreamBufferSpacesAvailable
 586 0022 0097     		str	r7, [sp]
 587 0024 0346     		mov	r3, r0
 588 0026 2A46     		mov	r2, r5
 589 0028 3146     		mov	r1, r6
 590 002a 2046     		mov	r0, r4
 591 002c FFF7FEFF 		bl	prvWriteMessageToBuffer
 592 0030 0546     		mov	r5, r0
 593 0032 18B9     		cbnz	r0, .L83
 594              	.L77:
 595 0034 2846     		mov	r0, r5
 596 0036 02B0     		add	sp, sp, #8
 597              		@ sp needed
 598 0038 BDE8F081 		pop	{r4, r5, r6, r7, r8, pc}
 599              	.L83:
ARM GAS  /tmp/cchoKqCk.s 			page 11


 600 003c 2046     		mov	r0, r4
 601 003e FFF7FEFF 		bl	prvBytesInBuffer
 602 0042 E368     		ldr	r3, [r4, #12]
 603 0044 9842     		cmp	r0, r3
 604 0046 F5D3     		bcc	.L77
 605              		.syntax unified
 606              	@ 211 "Middlewares/Third_Party/FreeRTOS/Source/portable/GCC/ARM_CM4F/portmacro.h" 1
 607 0048 EFF31186 			mrs r6, basepri											
 608 004c 4FF05003 		mov r3, #80												
 609 0050 83F31188 		msr basepri, r3											
 610 0054 BFF36F8F 		isb														
 611 0058 BFF34F8F 		dsb														
 612              	
 613              	@ 0 "" 2
 614              		.thumb
 615              		.syntax unified
 616 005c 2369     		ldr	r3, [r4, #16]
 617 005e 4BB1     		cbz	r3, .L80
 618 0060 2069     		ldr	r0, [r4, #16]
 619 0062 CDF80080 		str	r8, [sp]
 620 0066 0023     		movs	r3, #0
 621 0068 1A46     		mov	r2, r3
 622 006a 1946     		mov	r1, r3
 623 006c FFF7FEFF 		bl	xTaskGenericNotifyFromISR
 624 0070 0023     		movs	r3, #0
 625 0072 2361     		str	r3, [r4, #16]
 626              	.L80:
 627              		.syntax unified
 628              	@ 229 "Middlewares/Third_Party/FreeRTOS/Source/portable/GCC/ARM_CM4F/portmacro.h" 1
 629 0074 86F31188 			msr basepri, r6	
 630              	@ 0 "" 2
 631              		.thumb
 632              		.syntax unified
 633 0078 DCE7     		b	.L77
 635              		.section	.text.xStreamBufferReceive,"ax",%progbits
 636              		.align	1
 637              		.global	xStreamBufferReceive
 638              		.syntax unified
 639              		.thumb
 640              		.thumb_func
 641              		.fpu fpv4-sp-d16
 643              	xStreamBufferReceive:
 644              		@ args = 0, pretend = 0, frame = 0
 645              		@ frame_needed = 0, uses_anonymous_args = 0
 646 0000 2DE9F043 		push	{r4, r5, r6, r7, r8, r9, lr}
 647 0004 83B0     		sub	sp, sp, #12
 648 0006 0446     		mov	r4, r0
 649 0008 8846     		mov	r8, r1
 650 000a 9146     		mov	r9, r2
 651 000c 1F46     		mov	r7, r3
 652 000e 037F     		ldrb	r3, [r0, #28]	@ zero_extendqisi2
 653 0010 13F0010F 		tst	r3, #1
 654 0014 1AD0     		beq	.L91
 655 0016 0426     		movs	r6, #4
 656              	.L85:
 657 0018 0FB3     		cbz	r7, .L86
 658 001a FFF7FEFF 		bl	vPortEnterCritical
ARM GAS  /tmp/cchoKqCk.s 			page 12


 659 001e 2046     		mov	r0, r4
 660 0020 FFF7FEFF 		bl	prvBytesInBuffer
 661 0024 0546     		mov	r5, r0
 662 0026 8642     		cmp	r6, r0
 663 0028 12D2     		bcs	.L94
 664              	.L87:
 665 002a FFF7FEFF 		bl	vPortExitCritical
 666 002e AE42     		cmp	r6, r5
 667 0030 19D3     		bcc	.L88
 668 0032 3B46     		mov	r3, r7
 669 0034 0022     		movs	r2, #0
 670 0036 1146     		mov	r1, r2
 671 0038 1046     		mov	r0, r2
 672 003a FFF7FEFF 		bl	xTaskNotifyWait
 673 003e 0023     		movs	r3, #0
 674 0040 2361     		str	r3, [r4, #16]
 675 0042 2046     		mov	r0, r4
 676 0044 FFF7FEFF 		bl	prvBytesInBuffer
 677 0048 0546     		mov	r5, r0
 678 004a 0CE0     		b	.L88
 679              	.L91:
 680 004c 0026     		movs	r6, #0
 681 004e E3E7     		b	.L85
 682              	.L94:
 683 0050 0020     		movs	r0, #0
 684 0052 FFF7FEFF 		bl	xTaskNotifyStateClear
 685 0056 FFF7FEFF 		bl	xTaskGetCurrentTaskHandle
 686 005a 2061     		str	r0, [r4, #16]
 687 005c E5E7     		b	.L87
 688              	.L86:
 689 005e 2046     		mov	r0, r4
 690 0060 FFF7FEFF 		bl	prvBytesInBuffer
 691 0064 0546     		mov	r5, r0
 692              	.L88:
 693 0066 B542     		cmp	r5, r6
 694 0068 04D8     		bhi	.L95
 695 006a 0025     		movs	r5, #0
 696              	.L84:
 697 006c 2846     		mov	r0, r5
 698 006e 03B0     		add	sp, sp, #12
 699              		@ sp needed
 700 0070 BDE8F083 		pop	{r4, r5, r6, r7, r8, r9, pc}
 701              	.L95:
 702 0074 0096     		str	r6, [sp]
 703 0076 2B46     		mov	r3, r5
 704 0078 4A46     		mov	r2, r9
 705 007a 4146     		mov	r1, r8
 706 007c 2046     		mov	r0, r4
 707 007e FFF7FEFF 		bl	prvReadMessageFromBuffer
 708 0082 0546     		mov	r5, r0
 709 0084 0028     		cmp	r0, #0
 710 0086 F1D0     		beq	.L84
 711 0088 FFF7FEFF 		bl	vTaskSuspendAll
 712 008c 6369     		ldr	r3, [r4, #20]
 713 008e 3BB1     		cbz	r3, .L90
 714 0090 6069     		ldr	r0, [r4, #20]
 715 0092 0023     		movs	r3, #0
ARM GAS  /tmp/cchoKqCk.s 			page 13


 716 0094 1A46     		mov	r2, r3
 717 0096 1946     		mov	r1, r3
 718 0098 FFF7FEFF 		bl	xTaskGenericNotify
 719 009c 0023     		movs	r3, #0
 720 009e 6361     		str	r3, [r4, #20]
 721              	.L90:
 722 00a0 FFF7FEFF 		bl	xTaskResumeAll
 723 00a4 E2E7     		b	.L84
 725              		.section	.text.xStreamBufferNextMessageLengthBytes,"ax",%progbits
 726              		.align	1
 727              		.global	xStreamBufferNextMessageLengthBytes
 728              		.syntax unified
 729              		.thumb
 730              		.thumb_func
 731              		.fpu fpv4-sp-d16
 733              	xStreamBufferNextMessageLengthBytes:
 734              		@ args = 0, pretend = 0, frame = 8
 735              		@ frame_needed = 0, uses_anonymous_args = 0
 736 0000 037F     		ldrb	r3, [r0, #28]	@ zero_extendqisi2
 737 0002 13F0010F 		tst	r3, #1
 738 0006 01D1     		bne	.L104
 739 0008 0020     		movs	r0, #0
 740 000a 7047     		bx	lr
 741              	.L104:
 742 000c 30B5     		push	{r4, r5, lr}
 743 000e 83B0     		sub	sp, sp, #12
 744 0010 0446     		mov	r4, r0
 745 0012 FFF7FEFF 		bl	prvBytesInBuffer
 746 0016 0428     		cmp	r0, #4
 747 0018 02D8     		bhi	.L105
 748 001a 0020     		movs	r0, #0
 749              	.L96:
 750 001c 03B0     		add	sp, sp, #12
 751              		@ sp needed
 752 001e 30BD     		pop	{r4, r5, pc}
 753              	.L105:
 754 0020 2568     		ldr	r5, [r4]
 755 0022 0346     		mov	r3, r0
 756 0024 0422     		movs	r2, #4
 757 0026 0DEB0201 		add	r1, sp, r2
 758 002a 2046     		mov	r0, r4
 759 002c FFF7FEFF 		bl	prvReadBytesFromBuffer
 760 0030 0198     		ldr	r0, [sp, #4]
 761 0032 2560     		str	r5, [r4]
 762 0034 F2E7     		b	.L96
 764              		.section	.text.xStreamBufferReceiveFromISR,"ax",%progbits
 765              		.align	1
 766              		.global	xStreamBufferReceiveFromISR
 767              		.syntax unified
 768              		.thumb
 769              		.thumb_func
 770              		.fpu fpv4-sp-d16
 772              	xStreamBufferReceiveFromISR:
 773              		@ args = 0, pretend = 0, frame = 0
 774              		@ frame_needed = 0, uses_anonymous_args = 0
 775 0000 2DE9F041 		push	{r4, r5, r6, r7, r8, lr}
 776 0004 82B0     		sub	sp, sp, #8
ARM GAS  /tmp/cchoKqCk.s 			page 14


 777 0006 0446     		mov	r4, r0
 778 0008 0E46     		mov	r6, r1
 779 000a 1746     		mov	r7, r2
 780 000c 9846     		mov	r8, r3
 781 000e 037F     		ldrb	r3, [r0, #28]	@ zero_extendqisi2
 782 0010 13F0010F 		tst	r3, #1
 783 0014 0AD0     		beq	.L110
 784 0016 0425     		movs	r5, #4
 785              	.L107:
 786 0018 2046     		mov	r0, r4
 787 001a FFF7FEFF 		bl	prvBytesInBuffer
 788 001e 8542     		cmp	r5, r0
 789 0020 06D3     		bcc	.L113
 790 0022 0025     		movs	r5, #0
 791              	.L106:
 792 0024 2846     		mov	r0, r5
 793 0026 02B0     		add	sp, sp, #8
 794              		@ sp needed
 795 0028 BDE8F081 		pop	{r4, r5, r6, r7, r8, pc}
 796              	.L110:
 797 002c 0025     		movs	r5, #0
 798 002e F3E7     		b	.L107
 799              	.L113:
 800 0030 0095     		str	r5, [sp]
 801 0032 0346     		mov	r3, r0
 802 0034 3A46     		mov	r2, r7
 803 0036 3146     		mov	r1, r6
 804 0038 2046     		mov	r0, r4
 805 003a FFF7FEFF 		bl	prvReadMessageFromBuffer
 806 003e 0546     		mov	r5, r0
 807 0040 0028     		cmp	r0, #0
 808 0042 EFD0     		beq	.L106
 809              		.syntax unified
 810              	@ 211 "Middlewares/Third_Party/FreeRTOS/Source/portable/GCC/ARM_CM4F/portmacro.h" 1
 811 0044 EFF31186 			mrs r6, basepri											
 812 0048 4FF05003 		mov r3, #80												
 813 004c 83F31188 		msr basepri, r3											
 814 0050 BFF36F8F 		isb														
 815 0054 BFF34F8F 		dsb														
 816              	
 817              	@ 0 "" 2
 818              		.thumb
 819              		.syntax unified
 820 0058 6369     		ldr	r3, [r4, #20]
 821 005a 4BB1     		cbz	r3, .L109
 822 005c 6069     		ldr	r0, [r4, #20]
 823 005e CDF80080 		str	r8, [sp]
 824 0062 0023     		movs	r3, #0
 825 0064 1A46     		mov	r2, r3
 826 0066 1946     		mov	r1, r3
 827 0068 FFF7FEFF 		bl	xTaskGenericNotifyFromISR
 828 006c 0023     		movs	r3, #0
 829 006e 6361     		str	r3, [r4, #20]
 830              	.L109:
 831              		.syntax unified
 832              	@ 229 "Middlewares/Third_Party/FreeRTOS/Source/portable/GCC/ARM_CM4F/portmacro.h" 1
 833 0070 86F31188 			msr basepri, r6	
ARM GAS  /tmp/cchoKqCk.s 			page 15


 834              	@ 0 "" 2
 835              		.thumb
 836              		.syntax unified
 837 0074 D6E7     		b	.L106
 839              		.section	.text.xStreamBufferIsEmpty,"ax",%progbits
 840              		.align	1
 841              		.global	xStreamBufferIsEmpty
 842              		.syntax unified
 843              		.thumb
 844              		.thumb_func
 845              		.fpu fpv4-sp-d16
 847              	xStreamBufferIsEmpty:
 848              		@ args = 0, pretend = 0, frame = 0
 849              		@ frame_needed = 0, uses_anonymous_args = 0
 850              		@ link register save eliminated.
 851 0000 0368     		ldr	r3, [r0]
 852 0002 4268     		ldr	r2, [r0, #4]
 853 0004 9A42     		cmp	r2, r3
 854 0006 01D0     		beq	.L117
 855 0008 0020     		movs	r0, #0
 856 000a 7047     		bx	lr
 857              	.L117:
 858 000c 0120     		movs	r0, #1
 859 000e 7047     		bx	lr
 861              		.section	.text.xStreamBufferIsFull,"ax",%progbits
 862              		.align	1
 863              		.global	xStreamBufferIsFull
 864              		.syntax unified
 865              		.thumb
 866              		.thumb_func
 867              		.fpu fpv4-sp-d16
 869              	xStreamBufferIsFull:
 870              		@ args = 0, pretend = 0, frame = 0
 871              		@ frame_needed = 0, uses_anonymous_args = 0
 872 0000 10B5     		push	{r4, lr}
 873 0002 037F     		ldrb	r3, [r0, #28]	@ zero_extendqisi2
 874 0004 13F0010F 		tst	r3, #1
 875 0008 06D0     		beq	.L121
 876 000a 0424     		movs	r4, #4
 877              	.L119:
 878 000c FFF7FEFF 		bl	xStreamBufferSpacesAvailable
 879 0010 A042     		cmp	r0, r4
 880 0012 03D8     		bhi	.L122
 881 0014 0120     		movs	r0, #1
 882              	.L118:
 883 0016 10BD     		pop	{r4, pc}
 884              	.L121:
 885 0018 0024     		movs	r4, #0
 886 001a F7E7     		b	.L119
 887              	.L122:
 888 001c 0020     		movs	r0, #0
 889 001e FAE7     		b	.L118
 891              		.section	.text.xStreamBufferSendCompletedFromISR,"ax",%progbits
 892              		.align	1
 893              		.global	xStreamBufferSendCompletedFromISR
 894              		.syntax unified
 895              		.thumb
ARM GAS  /tmp/cchoKqCk.s 			page 16


 896              		.thumb_func
 897              		.fpu fpv4-sp-d16
 899              	xStreamBufferSendCompletedFromISR:
 900              		@ args = 0, pretend = 0, frame = 0
 901              		@ frame_needed = 0, uses_anonymous_args = 0
 902 0000 30B5     		push	{r4, r5, lr}
 903 0002 83B0     		sub	sp, sp, #12
 904              		.syntax unified
 905              	@ 211 "Middlewares/Third_Party/FreeRTOS/Source/portable/GCC/ARM_CM4F/portmacro.h" 1
 906 0004 EFF31185 			mrs r5, basepri											
 907 0008 4FF05003 		mov r3, #80												
 908 000c 83F31188 		msr basepri, r3											
 909 0010 BFF36F8F 		isb														
 910 0014 BFF34F8F 		dsb														
 911              	
 912              	@ 0 "" 2
 913              		.thumb
 914              		.syntax unified
 915 0018 0369     		ldr	r3, [r0, #16]
 916 001a 73B1     		cbz	r3, .L126
 917 001c 0446     		mov	r4, r0
 918 001e 0069     		ldr	r0, [r0, #16]
 919 0020 0091     		str	r1, [sp]
 920 0022 0023     		movs	r3, #0
 921 0024 1A46     		mov	r2, r3
 922 0026 1946     		mov	r1, r3
 923 0028 FFF7FEFF 		bl	xTaskGenericNotifyFromISR
 924 002c 0023     		movs	r3, #0
 925 002e 2361     		str	r3, [r4, #16]
 926 0030 0120     		movs	r0, #1
 927              	.L125:
 928              		.syntax unified
 929              	@ 229 "Middlewares/Third_Party/FreeRTOS/Source/portable/GCC/ARM_CM4F/portmacro.h" 1
 930 0032 85F31188 			msr basepri, r5	
 931              	@ 0 "" 2
 932              		.thumb
 933              		.syntax unified
 934 0036 03B0     		add	sp, sp, #12
 935              		@ sp needed
 936 0038 30BD     		pop	{r4, r5, pc}
 937              	.L126:
 938 003a 0020     		movs	r0, #0
 939 003c F9E7     		b	.L125
 941              		.section	.text.xStreamBufferReceiveCompletedFromISR,"ax",%progbits
 942              		.align	1
 943              		.global	xStreamBufferReceiveCompletedFromISR
 944              		.syntax unified
 945              		.thumb
 946              		.thumb_func
 947              		.fpu fpv4-sp-d16
 949              	xStreamBufferReceiveCompletedFromISR:
 950              		@ args = 0, pretend = 0, frame = 0
 951              		@ frame_needed = 0, uses_anonymous_args = 0
 952 0000 30B5     		push	{r4, r5, lr}
 953 0002 83B0     		sub	sp, sp, #12
 954              		.syntax unified
 955              	@ 211 "Middlewares/Third_Party/FreeRTOS/Source/portable/GCC/ARM_CM4F/portmacro.h" 1
ARM GAS  /tmp/cchoKqCk.s 			page 17


 956 0004 EFF31185 			mrs r5, basepri											
 957 0008 4FF05003 		mov r3, #80												
 958 000c 83F31188 		msr basepri, r3											
 959 0010 BFF36F8F 		isb														
 960 0014 BFF34F8F 		dsb														
 961              	
 962              	@ 0 "" 2
 963              		.thumb
 964              		.syntax unified
 965 0018 4369     		ldr	r3, [r0, #20]
 966 001a 73B1     		cbz	r3, .L130
 967 001c 0446     		mov	r4, r0
 968 001e 4069     		ldr	r0, [r0, #20]
 969 0020 0091     		str	r1, [sp]
 970 0022 0023     		movs	r3, #0
 971 0024 1A46     		mov	r2, r3
 972 0026 1946     		mov	r1, r3
 973 0028 FFF7FEFF 		bl	xTaskGenericNotifyFromISR
 974 002c 0023     		movs	r3, #0
 975 002e 6361     		str	r3, [r4, #20]
 976 0030 0120     		movs	r0, #1
 977              	.L129:
 978              		.syntax unified
 979              	@ 229 "Middlewares/Third_Party/FreeRTOS/Source/portable/GCC/ARM_CM4F/portmacro.h" 1
 980 0032 85F31188 			msr basepri, r5	
 981              	@ 0 "" 2
 982              		.thumb
 983              		.syntax unified
 984 0036 03B0     		add	sp, sp, #12
 985              		@ sp needed
 986 0038 30BD     		pop	{r4, r5, pc}
 987              	.L130:
 988 003a 0020     		movs	r0, #0
 989 003c F9E7     		b	.L129
 991              		.section	.text.uxStreamBufferGetStreamBufferNumber,"ax",%progbits
 992              		.align	1
 993              		.global	uxStreamBufferGetStreamBufferNumber
 994              		.syntax unified
 995              		.thumb
 996              		.thumb_func
 997              		.fpu fpv4-sp-d16
 999              	uxStreamBufferGetStreamBufferNumber:
 1000              		@ args = 0, pretend = 0, frame = 0
 1001              		@ frame_needed = 0, uses_anonymous_args = 0
 1002              		@ link register save eliminated.
 1003 0000 006A     		ldr	r0, [r0, #32]
 1004 0002 7047     		bx	lr
 1006              		.section	.text.vStreamBufferSetStreamBufferNumber,"ax",%progbits
 1007              		.align	1
 1008              		.global	vStreamBufferSetStreamBufferNumber
 1009              		.syntax unified
 1010              		.thumb
 1011              		.thumb_func
 1012              		.fpu fpv4-sp-d16
 1014              	vStreamBufferSetStreamBufferNumber:
 1015              		@ args = 0, pretend = 0, frame = 0
 1016              		@ frame_needed = 0, uses_anonymous_args = 0
ARM GAS  /tmp/cchoKqCk.s 			page 18


 1017              		@ link register save eliminated.
 1018 0000 0162     		str	r1, [r0, #32]
 1019 0002 7047     		bx	lr
 1021              		.section	.text.ucStreamBufferGetStreamBufferType,"ax",%progbits
 1022              		.align	1
 1023              		.global	ucStreamBufferGetStreamBufferType
 1024              		.syntax unified
 1025              		.thumb
 1026              		.thumb_func
 1027              		.fpu fpv4-sp-d16
 1029              	ucStreamBufferGetStreamBufferType:
 1030              		@ args = 0, pretend = 0, frame = 0
 1031              		@ frame_needed = 0, uses_anonymous_args = 0
 1032              		@ link register save eliminated.
 1033 0000 007F     		ldrb	r0, [r0, #28]	@ zero_extendqisi2
 1034 0002 00F00100 		and	r0, r0, #1
 1035 0006 7047     		bx	lr
 1037              		.ident	"GCC: (GNU Tools for Arm Embedded Processors 8-2019-q3-update) 8.3.1 20190703 (release) [gc
ARM GAS  /tmp/cchoKqCk.s 			page 19

